---
triple:          'arm64-apple-darwin'
binary-path:     '/Users/david/Documents/GitHub/Cplusplus/src/code_L5/oop/main'
relocations:
  - { offsetInCU: 0x2F4F, offset: 0x2F4F, size: 0x8, addend: 0x0, symName: __ZNSt3__124__put_character_sequenceB8ue170006IcNS_11char_traitsIcEEEERNS_13basic_ostreamIT_T0_EES7_PKS4_m, symObjAddr: 0x22C, symBinAddr: 0x100002C64, symSize: 0x1EC }
  - { offsetInCU: 0x48E6, offset: 0x48E6, size: 0x8, addend: 0x0, symName: __ZNSt3__1lsB8ue170006INS_11char_traitsIcEEEERNS_13basic_ostreamIcT_EES6_PKc, symObjAddr: 0x118, symBinAddr: 0x100002B50, symSize: 0x48 }
  - { offsetInCU: 0x492C, offset: 0x492C, size: 0x8, addend: 0x0, symName: __ZNSt3__14endlB8ue170006IcNS_11char_traitsIcEEEERNS_13basic_ostreamIT_T0_EES7_, symObjAddr: 0x18C, symBinAddr: 0x100002BC4, symSize: 0x58 }
  - { offsetInCU: 0x496C, offset: 0x496C, size: 0x8, addend: 0x0, symName: __ZNSt3__116__pad_and_outputB8ue170006IcNS_11char_traitsIcEEEENS_19ostreambuf_iteratorIT_T0_EES6_PKS4_S8_S8_RNS_8ios_baseES4_, symObjAddr: 0x468, symBinAddr: 0x100002EA0, symSize: 0x240 }
  - { offsetInCU: 0x4A3B, offset: 0x4A3B, size: 0x8, addend: 0x0, symName: __ZNSt3__112__to_addressB8ue170006IcEEPT_S2_, symObjAddr: 0x9DC, symBinAddr: 0x100003414, symSize: 0x14 }
  - { offsetInCU: 0x4AA3, offset: 0x4AA3, size: 0x8, addend: 0x0, symName: __ZNSt3__19use_facetB8ue170006INS_5ctypeIcEEEERKT_RKNS_6localeE, symObjAddr: 0xC94, symBinAddr: 0x1000036CC, symSize: 0x2C }
  - { offsetInCU: 0x4F70, offset: 0x4F70, size: 0x8, addend: 0x0, symName: __ZNSt3__118__constexpr_strlenB8ue170006EPKc, symObjAddr: 0xD2C, symBinAddr: 0x100003764, symSize: 0x24 }
  - { offsetInCU: 0x7B59, offset: 0x7B59, size: 0x8, addend: 0x0, symName: __ZmiRK4DateS1_, symObjAddr: 0x0, symBinAddr: 0x100002A38, symSize: 0xA8 }
  - { offsetInCU: 0x7BBD, offset: 0x7BBD, size: 0x8, addend: 0x0, symName: __ZlsRNSt3__113basic_ostreamIcNS_11char_traitsIcEEEERK4Date, symObjAddr: 0xA8, symBinAddr: 0x100002AE0, symSize: 0x70 }
  - { offsetInCU: 0x7BF7, offset: 0x7BF7, size: 0x8, addend: 0x0, symName: __ZNSt3__113basic_ostreamIcNS_11char_traitsIcEEElsB8ue170006EPFRS3_S4_E, symObjAddr: 0x160, symBinAddr: 0x100002B98, symSize: 0x2C }
  - { offsetInCU: 0x7C29, offset: 0x7C29, size: 0x8, addend: 0x0, symName: __ZrsRNSt3__113basic_istreamIcNS_11char_traitsIcEEEER4Date, symObjAddr: 0x1E4, symBinAddr: 0x100002C1C, symSize: 0x48 }
  - { offsetInCU: 0x7C63, offset: 0x7C63, size: 0x8, addend: 0x0, symName: __ZNSt3__111char_traitsIcE6lengthB8ue170006EPKc, symObjAddr: 0x418, symBinAddr: 0x100002E50, symSize: 0x34 }
  - { offsetInCU: 0x7CA3, offset: 0x7CA3, size: 0x8, addend: 0x0, symName: __ZNKSt3__113basic_ostreamIcNS_11char_traitsIcEEE6sentrycvbB8ue170006Ev, symObjAddr: 0x44C, symBinAddr: 0x100002E84, symSize: 0x1C }
  - { offsetInCU: 0x7CC7, offset: 0x7CC7, size: 0x8, addend: 0x0, symName: __ZNSt3__119ostreambuf_iteratorIcNS_11char_traitsIcEEEC1B8ue170006ERNS_13basic_ostreamIcS2_EE, symObjAddr: 0x6A8, symBinAddr: 0x1000030E0, symSize: 0x34 }
  - { offsetInCU: 0x7CFD, offset: 0x7CFD, size: 0x8, addend: 0x0, symName: __ZNKSt3__18ios_base5flagsB8ue170006Ev, symObjAddr: 0x6DC, symBinAddr: 0x100003114, symSize: 0x18 }
  - { offsetInCU: 0x7D23, offset: 0x7D23, size: 0x8, addend: 0x0, symName: __ZNKSt3__19basic_iosIcNS_11char_traitsIcEEE4fillB8ue170006Ev, symObjAddr: 0x6F4, symBinAddr: 0x10000312C, symSize: 0x64 }
  - { offsetInCU: 0x7D49, offset: 0x7D49, size: 0x8, addend: 0x0, symName: __ZNKSt3__119ostreambuf_iteratorIcNS_11char_traitsIcEEE6failedB8ue170006Ev, symObjAddr: 0x758, symBinAddr: 0x100003190, symSize: 0x24 }
  - { offsetInCU: 0x7D6D, offset: 0x7D6D, size: 0x8, addend: 0x0, symName: __ZNSt3__19basic_iosIcNS_11char_traitsIcEEE8setstateB8ue170006Ej, symObjAddr: 0x77C, symBinAddr: 0x1000031B4, symSize: 0x2C }
  - { offsetInCU: 0x7DA0, offset: 0x7DA0, size: 0x8, addend: 0x0, symName: __ZNKSt3__18ios_base5widthB8ue170006Ev, symObjAddr: 0x7B4, symBinAddr: 0x1000031EC, symSize: 0x18 }
  - { offsetInCU: 0x7DC6, offset: 0x7DC6, size: 0x8, addend: 0x0, symName: __ZNSt3__115basic_streambufIcNS_11char_traitsIcEEE5sputnB8ue170006EPKcl, symObjAddr: 0x7CC, symBinAddr: 0x100003204, symSize: 0x3C }
  - { offsetInCU: 0x7E06, offset: 0x7E06, size: 0x8, addend: 0x0, symName: __ZNSt3__112basic_stringIcNS_11char_traitsIcEENS_9allocatorIcEEEC1B8ue170006Emc, symObjAddr: 0x808, symBinAddr: 0x100003240, symSize: 0x3C }
  - { offsetInCU: 0x7E4C, offset: 0x7E4C, size: 0x8, addend: 0x0, symName: __ZNSt3__112basic_stringIcNS_11char_traitsIcEENS_9allocatorIcEEE4dataB8ue170006Ev, symObjAddr: 0x844, symBinAddr: 0x10000327C, symSize: 0x28 }
  - { offsetInCU: 0x7E70, offset: 0x7E70, size: 0x8, addend: 0x0, symName: __ZNSt3__18ios_base5widthB8ue170006El, symObjAddr: 0x86C, symBinAddr: 0x1000032A4, symSize: 0x2C }
  - { offsetInCU: 0x7EB4, offset: 0x7EB4, size: 0x8, addend: 0x0, symName: __ZNSt3__112basic_stringIcNS_11char_traitsIcEENS_9allocatorIcEEEC2B8ue170006Emc, symObjAddr: 0x898, symBinAddr: 0x1000032D0, symSize: 0x4C }
  - { offsetInCU: 0x7EFF, offset: 0x7EFF, size: 0x8, addend: 0x0, symName: __ZNSt3__117__compressed_pairINS_12basic_stringIcNS_11char_traitsIcEENS_9allocatorIcEEE5__repES5_EC1B8ue170006INS_18__default_init_tagESA_EEOT_OT0_, symObjAddr: 0x8E4, symBinAddr: 0x10000331C, symSize: 0x3C }
  - { offsetInCU: 0x7F55, offset: 0x7F55, size: 0x8, addend: 0x0, symName: __ZNSt3__117__compressed_pairINS_12basic_stringIcNS_11char_traitsIcEENS_9allocatorIcEEE5__repES5_EC2B8ue170006INS_18__default_init_tagESA_EEOT_OT0_, symObjAddr: 0x920, symBinAddr: 0x100003358, symSize: 0x3C }
  - { offsetInCU: 0x7FAB, offset: 0x7FAB, size: 0x8, addend: 0x0, symName: __ZNSt3__122__compressed_pair_elemINS_12basic_stringIcNS_11char_traitsIcEENS_9allocatorIcEEE5__repELi0ELb0EEC2B8ue170006ENS_18__default_init_tagE, symObjAddr: 0x95C, symBinAddr: 0x100003394, symSize: 0x14 }
  - { offsetInCU: 0x7FDD, offset: 0x7FDD, size: 0x8, addend: 0x0, symName: __ZNSt3__122__compressed_pair_elemINS_9allocatorIcEELi1ELb1EEC2B8ue170006ENS_18__default_init_tagE, symObjAddr: 0x970, symBinAddr: 0x1000033A8, symSize: 0x2C }
  - { offsetInCU: 0x800F, offset: 0x800F, size: 0x8, addend: 0x0, symName: __ZNSt3__19allocatorIcEC2B8ue170006Ev, symObjAddr: 0x99C, symBinAddr: 0x1000033D4, symSize: 0x2C }
  - { offsetInCU: 0x8037, offset: 0x8037, size: 0x8, addend: 0x0, symName: __ZNSt3__116__non_trivial_ifILb1ENS_9allocatorIcEEEC2B8ue170006Ev, symObjAddr: 0x9C8, symBinAddr: 0x100003400, symSize: 0x14 }
  - { offsetInCU: 0x805F, offset: 0x805F, size: 0x8, addend: 0x0, symName: __ZNSt3__112basic_stringIcNS_11char_traitsIcEENS_9allocatorIcEEE13__get_pointerB8ue170006Ev, symObjAddr: 0x9F0, symBinAddr: 0x100003428, symSize: 0x54 }
  - { offsetInCU: 0x8083, offset: 0x8083, size: 0x8, addend: 0x0, symName: __ZNKSt3__112basic_stringIcNS_11char_traitsIcEENS_9allocatorIcEEE9__is_longB8ue170006Ev, symObjAddr: 0xA44, symBinAddr: 0x10000347C, symSize: 0x38 }
  - { offsetInCU: 0x80A7, offset: 0x80A7, size: 0x8, addend: 0x0, symName: __ZNSt3__112basic_stringIcNS_11char_traitsIcEENS_9allocatorIcEEE18__get_long_pointerB8ue170006Ev, symObjAddr: 0xA7C, symBinAddr: 0x1000034B4, symSize: 0x28 }
  - { offsetInCU: 0x80CB, offset: 0x80CB, size: 0x8, addend: 0x0, symName: __ZNSt3__112basic_stringIcNS_11char_traitsIcEENS_9allocatorIcEEE19__get_short_pointerB8ue170006Ev, symObjAddr: 0xAA4, symBinAddr: 0x1000034DC, symSize: 0x28 }
  - { offsetInCU: 0x80EF, offset: 0x80EF, size: 0x8, addend: 0x0, symName: __ZNKSt3__117__compressed_pairINS_12basic_stringIcNS_11char_traitsIcEENS_9allocatorIcEEE5__repES5_E5firstB8ue170006Ev, symObjAddr: 0xACC, symBinAddr: 0x100003504, symSize: 0x24 }
  - { offsetInCU: 0x8113, offset: 0x8113, size: 0x8, addend: 0x0, symName: __ZNKSt3__122__compressed_pair_elemINS_12basic_stringIcNS_11char_traitsIcEENS_9allocatorIcEEE5__repELi0ELb0EE5__getB8ue170006Ev, symObjAddr: 0xAF0, symBinAddr: 0x100003528, symSize: 0x14 }
  - { offsetInCU: 0x8137, offset: 0x8137, size: 0x8, addend: 0x0, symName: __ZNSt3__117__compressed_pairINS_12basic_stringIcNS_11char_traitsIcEENS_9allocatorIcEEE5__repES5_E5firstB8ue170006Ev, symObjAddr: 0xB04, symBinAddr: 0x10000353C, symSize: 0x24 }
  - { offsetInCU: 0x815B, offset: 0x815B, size: 0x8, addend: 0x0, symName: __ZNSt3__122__compressed_pair_elemINS_12basic_stringIcNS_11char_traitsIcEENS_9allocatorIcEEE5__repELi0ELb0EE5__getB8ue170006Ev, symObjAddr: 0xB28, symBinAddr: 0x100003560, symSize: 0x14 }
  - { offsetInCU: 0x817F, offset: 0x817F, size: 0x8, addend: 0x0, symName: __ZNSt3__114pointer_traitsIPcE10pointer_toB8ue170006ERc, symObjAddr: 0xB3C, symBinAddr: 0x100003574, symSize: 0x14 }
  - { offsetInCU: 0x81A1, offset: 0x81A1, size: 0x8, addend: 0x0, symName: __ZNSt3__119ostreambuf_iteratorIcNS_11char_traitsIcEEEC2B8ue170006ERNS_13basic_ostreamIcS2_EE, symObjAddr: 0xB50, symBinAddr: 0x100003588, symSize: 0x54 }
  - { offsetInCU: 0x81D7, offset: 0x81D7, size: 0x8, addend: 0x0, symName: __ZNKSt3__19basic_iosIcNS_11char_traitsIcEEE5rdbufB8ue170006Ev, symObjAddr: 0xBA4, symBinAddr: 0x1000035DC, symSize: 0x24 }
  - { offsetInCU: 0x81FD, offset: 0x81FD, size: 0x8, addend: 0x0, symName: __ZNKSt3__18ios_base5rdbufB8ue170006Ev, symObjAddr: 0xBC8, symBinAddr: 0x100003600, symSize: 0x18 }
  - { offsetInCU: 0x8221, offset: 0x8221, size: 0x8, addend: 0x0, symName: __ZNSt3__111char_traitsIcE11eq_int_typeB8ue170006Eii, symObjAddr: 0xBE0, symBinAddr: 0x100003618, symSize: 0x28 }
  - { offsetInCU: 0x8253, offset: 0x8253, size: 0x8, addend: 0x0, symName: __ZNSt3__111char_traitsIcE3eofB8ue170006Ev, symObjAddr: 0xC08, symBinAddr: 0x100003640, symSize: 0x8 }
  - { offsetInCU: 0x8266, offset: 0x8266, size: 0x8, addend: 0x0, symName: __ZNKSt3__19basic_iosIcNS_11char_traitsIcEEE5widenB8ue170006Ec, symObjAddr: 0xC10, symBinAddr: 0x100003648, symSize: 0x84 }
  - { offsetInCU: 0x82D2, offset: 0x82D2, size: 0x8, addend: 0x0, symName: __ZNKSt3__15ctypeIcE5widenB8ue170006Ec, symObjAddr: 0xCC0, symBinAddr: 0x1000036F8, symSize: 0x38 }
  - { offsetInCU: 0x8305, offset: 0x8305, size: 0x8, addend: 0x0, symName: __ZNSt3__18ios_base8setstateB8ue170006Ej, symObjAddr: 0xCF8, symBinAddr: 0x100003730, symSize: 0x34 }
  - { offsetInCU: 0xC317, offset: 0x1478F, size: 0x8, addend: 0x0, symName: __ZNSt3__1lsB8ue170006IcNS_11char_traitsIcEENS_9allocatorIcEEEERNS_13basic_ostreamIT_T0_EES9_RKNS_12basic_stringIS6_S7_T1_EE, symObjAddr: 0x100, symBinAddr: 0x100003888, symSize: 0x4C }
  - { offsetInCU: 0x1005B, offset: 0x184D3, size: 0x8, addend: 0x0, symName: __ZNSt3__1neB8ue170006ERKNS_25__hash_map_const_iteratorINS_21__hash_const_iteratorIPNS_11__hash_nodeINS_17__hash_value_typeINS_12basic_stringIcNS_11char_traitsIcEENS_9allocatorIcEEEE9RateCurveEEPvEEEEEESI_, symObjAddr: 0x654, symBinAddr: 0x100003D10, symSize: 0x30 }
  - { offsetInCU: 0x10098, offset: 0x18510, size: 0x8, addend: 0x0, symName: __ZNSt3__1neB8ue170006ERKNS_25__hash_map_const_iteratorINS_21__hash_const_iteratorIPNS_11__hash_nodeINS_17__hash_value_typeINS_12basic_stringIcNS_11char_traitsIcEENS_9allocatorIcEEEE8VolCurveEEPvEEEEEESI_, symObjAddr: 0x7A8, symBinAddr: 0x100003E64, symSize: 0x30 }
  - { offsetInCU: 0x100D5, offset: 0x1854D, size: 0x8, addend: 0x0, symName: __ZNSt3__122__make_exception_guardB8ue170006INS_6vectorI4DateNS_9allocatorIS2_EEE16__destroy_vectorEEENS_28__exception_guard_exceptionsIT_EES8_, symObjAddr: 0xDDC, symBinAddr: 0x100004498, symSize: 0x40 }
  - { offsetInCU: 0x1010A, offset: 0x18582, size: 0x8, addend: 0x0, symName: __ZNSt3__119__allocate_at_leastB8ue170006INS_9allocatorI4DateEEEENS_19__allocation_resultINS_16allocator_traitsIT_E7pointerEEERS6_m, symObjAddr: 0x10CC, symBinAddr: 0x100004788, symSize: 0x40 }
  - { offsetInCU: 0x1014D, offset: 0x185C5, size: 0x8, addend: 0x0, symName: __ZNSt3__13minB8ue170006ImEERKT_S3_S3_, symObjAddr: 0x1224, symBinAddr: 0x1000048E0, symSize: 0x2C }
  - { offsetInCU: 0x1037A, offset: 0x187F2, size: 0x8, addend: 0x0, symName: __ZNSt3__13minB8ue170006ImNS_6__lessIvvEEEERKT_S5_S5_T0_, symObjAddr: 0x1294, symBinAddr: 0x100004944, symSize: 0x54 }
  - { offsetInCU: 0x1041B, offset: 0x18893, size: 0x8, addend: 0x0, symName: __ZNSt3__120__throw_length_errorB8ue170006EPKc, symObjAddr: 0x133C, symBinAddr: 0x1000049EC, symSize: 0x64 }
  - { offsetInCU: 0x10446, offset: 0x188BE, size: 0x8, addend: 0x0, symName: __ZNSt3__117__libcpp_allocateB8ue170006Emm, symObjAddr: 0x14B0, symBinAddr: 0x100004B60, symSize: 0x60 }
  - { offsetInCU: 0x104A1, offset: 0x18919, size: 0x8, addend: 0x0, symName: __ZNSt3__124__is_overaligned_for_newB8ue170006Em, symObjAddr: 0x1510, symBinAddr: 0x100004BC0, symSize: 0x20 }
  - { offsetInCU: 0x104D0, offset: 0x18948, size: 0x8, addend: 0x0, symName: __ZNSt3__121__libcpp_operator_newB8ue170006IJmSt11align_val_tEEEPvDpT_, symObjAddr: 0x1530, symBinAddr: 0x100004BE0, symSize: 0x2C }
  - { offsetInCU: 0x1051F, offset: 0x18997, size: 0x8, addend: 0x0, symName: __ZNSt3__121__libcpp_operator_newB8ue170006IJmEEEPvDpT_, symObjAddr: 0x155C, symBinAddr: 0x100004C0C, symSize: 0x24 }
  - { offsetInCU: 0x10559, offset: 0x189D1, size: 0x8, addend: 0x0, symName: __ZNSt3__112__to_addressB8ue170006I4DateEEPT_S3_, symObjAddr: 0x1678, symBinAddr: 0x100004D28, symSize: 0x14 }
  - { offsetInCU: 0x1058E, offset: 0x18A06, size: 0x8, addend: 0x0, symName: __ZNSt3__130__uninitialized_allocator_copyB8ue170006INS_9allocatorI4DateEEPS2_S4_S4_EET2_RT_T0_T1_S5_, symObjAddr: 0x1728, symBinAddr: 0x100004DD8, symSize: 0x80 }
  - { offsetInCU: 0x1062B, offset: 0x18AA3, size: 0x8, addend: 0x0, symName: __ZNSt3__114__unwrap_rangeB8ue170006IP4DateS2_EENS_4pairIT0_S4_EET_S6_, symObjAddr: 0x1820, symBinAddr: 0x100004ED0, symSize: 0x60 }
  - { offsetInCU: 0x10677, offset: 0x18AEF, size: 0x8, addend: 0x0, symName: __ZNSt3__135__uninitialized_allocator_copy_implB8ue170006INS_9allocatorI4DateEES2_S2_S2_LPv0EEEPT2_RT_PT0_SA_S6_, symObjAddr: 0x1880, symBinAddr: 0x100004F30, symSize: 0x38 }
  - { offsetInCU: 0x106FA, offset: 0x18B72, size: 0x8, addend: 0x0, symName: __ZNSt3__113__unwrap_iterB8ue170006IP4DateNS_18__unwrap_iter_implIS2_Lb1EEELi0EEEDTclsrT0_8__unwrapclsr3stdE7declvalIT_EEEES6_, symObjAddr: 0x18B8, symBinAddr: 0x100004F68, symSize: 0x24 }
  - { offsetInCU: 0x1073F, offset: 0x18BB7, size: 0x8, addend: 0x0, symName: __ZNSt3__113__rewrap_iterB8ue170006IP4DateS2_NS_18__unwrap_iter_implIS2_Lb1EEEEET_S5_T0_, symObjAddr: 0x18DC, symBinAddr: 0x100004F8C, symSize: 0x3C }
  - { offsetInCU: 0x10794, offset: 0x18C0C, size: 0x8, addend: 0x0, symName: __ZNSt3__19make_pairB8ue170006IP4DateS2_EENS_4pairINS_18__unwrap_ref_decayIT_E4typeENS4_IT0_E4typeEEEOS5_OS8_, symObjAddr: 0x1918, symBinAddr: 0x100004FC8, symSize: 0x38 }
  - { offsetInCU: 0x108E8, offset: 0x18D60, size: 0x8, addend: 0x0, symName: __ZNSt3__14copyB8ue170006IP4DateS2_EET0_T_S4_S3_, symObjAddr: 0x19C0, symBinAddr: 0x100005070, symSize: 0x40 }
  - { offsetInCU: 0x10942, offset: 0x18DBA, size: 0x8, addend: 0x0, symName: __ZNSt3__16__copyB8ue170006INS_17_ClassicAlgPolicyEP4DateS3_S3_EENS_4pairIT0_T2_EES5_T1_S6_, symObjAddr: 0x1A00, symBinAddr: 0x1000050B0, symSize: 0x44 }
  - { offsetInCU: 0x109AE, offset: 0x18E26, size: 0x8, addend: 0x0, symName: __ZNSt3__123__dispatch_copy_or_moveB8ue170006INS_17_ClassicAlgPolicyENS_11__copy_loopIS1_EENS_14__copy_trivialEP4DateS6_S6_EENS_4pairIT2_T4_EES8_T3_S9_, symObjAddr: 0x1A44, symBinAddr: 0x1000050F4, symSize: 0x44 }
  - { offsetInCU: 0x10A2C, offset: 0x18EA4, size: 0x8, addend: 0x0, symName: __ZNSt3__121__unwrap_and_dispatchB8ue170006INS_10__overloadINS_11__copy_loopINS_17_ClassicAlgPolicyEEENS_14__copy_trivialEEEP4DateS8_S8_Li0EEENS_4pairIT0_T2_EESA_T1_SB_, symObjAddr: 0x1A88, symBinAddr: 0x100005138, symSize: 0xB4 }
  - { offsetInCU: 0x10B3F, offset: 0x18FB7, size: 0x8, addend: 0x0, symName: __ZNSt3__114__rewrap_rangeB8ue170006IP4DateS2_EET_S3_T0_, symObjAddr: 0x1B84, symBinAddr: 0x100005234, symSize: 0x2C }
  - { offsetInCU: 0x10B8B, offset: 0x19003, size: 0x8, addend: 0x0, symName: __ZNSt3__119__copy_trivial_implB8ue170006I4DateS1_EENS_4pairIPT_PT0_EES4_S4_S6_, symObjAddr: 0x1BB0, symBinAddr: 0x100005260, symSize: 0x88 }
  - { offsetInCU: 0x10BF3, offset: 0x1906B, size: 0x8, addend: 0x0, symName: __ZNSt3__119__constexpr_memmoveB8ue170006I4DateS1_Li0EEEPT_S3_PT0_NS_15__element_countE, symObjAddr: 0x1C38, symBinAddr: 0x1000052E8, symSize: 0x68 }
  - { offsetInCU: 0x10C62, offset: 0x190DA, size: 0x8, addend: 0x0, symName: __ZNSt3__19make_pairB8ue170006IRP4DateS2_EENS_4pairINS_18__unwrap_ref_decayIT_E4typeENS5_IT0_E4typeEEEOS6_OS9_, symObjAddr: 0x1CA0, symBinAddr: 0x100005350, symSize: 0x38 }
  - { offsetInCU: 0x10D05, offset: 0x1917D, size: 0x8, addend: 0x0, symName: __ZNSt3__119__libcpp_deallocateB8ue170006EPvmm, symObjAddr: 0x2104, symBinAddr: 0x1000057B4, symSize: 0x60 }
  - { offsetInCU: 0x10D6C, offset: 0x191E4, size: 0x8, addend: 0x0, symName: __ZNSt3__127__do_deallocate_handle_sizeB8ue170006IJSt11align_val_tEEEvPvmDpT_, symObjAddr: 0x2164, symBinAddr: 0x100005814, symSize: 0x30 }
  - { offsetInCU: 0x10DC1, offset: 0x19239, size: 0x8, addend: 0x0, symName: __ZNSt3__127__do_deallocate_handle_sizeB8ue170006IJEEEvPvmDpT_, symObjAddr: 0x2194, symBinAddr: 0x100005844, symSize: 0x28 }
  - { offsetInCU: 0x10E01, offset: 0x19279, size: 0x8, addend: 0x0, symName: __ZNSt3__124__libcpp_operator_deleteB8ue170006IJPvSt11align_val_tEEEvDpT_, symObjAddr: 0x21BC, symBinAddr: 0x10000586C, symSize: 0x2C }
  - { offsetInCU: 0x10E4D, offset: 0x192C5, size: 0x8, addend: 0x0, symName: __ZNSt3__124__libcpp_operator_deleteB8ue170006IJPvEEEvDpT_, symObjAddr: 0x21E8, symBinAddr: 0x100005898, symSize: 0x24 }
  - { offsetInCU: 0x10E84, offset: 0x192FC, size: 0x8, addend: 0x0, symName: __ZNSt3__122__make_exception_guardB8ue170006INS_6vectorIdNS_9allocatorIdEEE16__destroy_vectorEEENS_28__exception_guard_exceptionsIT_EES7_, symObjAddr: 0x24A4, symBinAddr: 0x100005B54, symSize: 0x40 }
  - { offsetInCU: 0x10EB9, offset: 0x19331, size: 0x8, addend: 0x0, symName: __ZNSt3__119__allocate_at_leastB8ue170006INS_9allocatorIdEEEENS_19__allocation_resultINS_16allocator_traitsIT_E7pointerEEERS5_m, symObjAddr: 0x278C, symBinAddr: 0x100005E3C, symSize: 0x40 }
  - { offsetInCU: 0x10EFC, offset: 0x19374, size: 0x8, addend: 0x0, symName: __ZNSt3__112__to_addressB8ue170006IdEEPT_S2_, symObjAddr: 0x2A50, symBinAddr: 0x100006100, symSize: 0x14 }
  - { offsetInCU: 0x10F31, offset: 0x193A9, size: 0x8, addend: 0x0, symName: __ZNSt3__130__uninitialized_allocator_copyB8ue170006INS_9allocatorIdEEPdS3_S3_EET2_RT_T0_T1_S4_, symObjAddr: 0x2B00, symBinAddr: 0x1000061B0, symSize: 0x80 }
  - { offsetInCU: 0x10FCE, offset: 0x19446, size: 0x8, addend: 0x0, symName: __ZNSt3__114__unwrap_rangeB8ue170006IPdS1_EENS_4pairIT0_S3_EET_S5_, symObjAddr: 0x2BF0, symBinAddr: 0x1000062A0, symSize: 0x60 }
  - { offsetInCU: 0x1101A, offset: 0x19492, size: 0x8, addend: 0x0, symName: __ZNSt3__135__uninitialized_allocator_copy_implB8ue170006INS_9allocatorIdEEdddLPv0EEEPT2_RT_PT0_S9_S5_, symObjAddr: 0x2C50, symBinAddr: 0x100006300, symSize: 0x38 }
  - { offsetInCU: 0x1109D, offset: 0x19515, size: 0x8, addend: 0x0, symName: __ZNSt3__113__unwrap_iterB8ue170006IPdNS_18__unwrap_iter_implIS1_Lb1EEELi0EEEDTclsrT0_8__unwrapclsr3stdE7declvalIT_EEEES5_, symObjAddr: 0x2C88, symBinAddr: 0x100006338, symSize: 0x24 }
  - { offsetInCU: 0x110E2, offset: 0x1955A, size: 0x8, addend: 0x0, symName: __ZNSt3__113__rewrap_iterB8ue170006IPdS1_NS_18__unwrap_iter_implIS1_Lb1EEEEET_S4_T0_, symObjAddr: 0x2CAC, symBinAddr: 0x10000635C, symSize: 0x3C }
  - { offsetInCU: 0x11137, offset: 0x195AF, size: 0x8, addend: 0x0, symName: __ZNSt3__19make_pairB8ue170006IPdS1_EENS_4pairINS_18__unwrap_ref_decayIT_E4typeENS3_IT0_E4typeEEEOS4_OS7_, symObjAddr: 0x2CE8, symBinAddr: 0x100006398, symSize: 0x38 }
  - { offsetInCU: 0x1128B, offset: 0x19703, size: 0x8, addend: 0x0, symName: __ZNSt3__14copyB8ue170006IPdS1_EET0_T_S3_S2_, symObjAddr: 0x2D90, symBinAddr: 0x100006440, symSize: 0x40 }
  - { offsetInCU: 0x112E5, offset: 0x1975D, size: 0x8, addend: 0x0, symName: __ZNSt3__16__copyB8ue170006INS_17_ClassicAlgPolicyEPdS2_S2_EENS_4pairIT0_T2_EES4_T1_S5_, symObjAddr: 0x2DD0, symBinAddr: 0x100006480, symSize: 0x44 }
  - { offsetInCU: 0x11351, offset: 0x197C9, size: 0x8, addend: 0x0, symName: __ZNSt3__123__dispatch_copy_or_moveB8ue170006INS_17_ClassicAlgPolicyENS_11__copy_loopIS1_EENS_14__copy_trivialEPdS5_S5_EENS_4pairIT2_T4_EES7_T3_S8_, symObjAddr: 0x2E14, symBinAddr: 0x1000064C4, symSize: 0x44 }
  - { offsetInCU: 0x113CF, offset: 0x19847, size: 0x8, addend: 0x0, symName: __ZNSt3__121__unwrap_and_dispatchB8ue170006INS_10__overloadINS_11__copy_loopINS_17_ClassicAlgPolicyEEENS_14__copy_trivialEEEPdS7_S7_Li0EEENS_4pairIT0_T2_EES9_T1_SA_, symObjAddr: 0x2E58, symBinAddr: 0x100006508, symSize: 0xB4 }
  - { offsetInCU: 0x1145E, offset: 0x198D6, size: 0x8, addend: 0x0, symName: __ZNSt3__114__rewrap_rangeB8ue170006IPdS1_EET_S2_T0_, symObjAddr: 0x2F54, symBinAddr: 0x100006604, symSize: 0x2C }
  - { offsetInCU: 0x114AA, offset: 0x19922, size: 0x8, addend: 0x0, symName: __ZNSt3__119__copy_trivial_implB8ue170006IddEENS_4pairIPT_PT0_EES3_S3_S5_, symObjAddr: 0x2F80, symBinAddr: 0x100006630, symSize: 0x80 }
  - { offsetInCU: 0x11512, offset: 0x1998A, size: 0x8, addend: 0x0, symName: __ZNSt3__119__constexpr_memmoveB8ue170006IddLi0EEEPT_S2_PT0_NS_15__element_countE, symObjAddr: 0x3000, symBinAddr: 0x1000066B0, symSize: 0x64 }
  - { offsetInCU: 0x11581, offset: 0x199F9, size: 0x8, addend: 0x0, symName: __ZNSt3__19make_pairB8ue170006IRPdS1_EENS_4pairINS_18__unwrap_ref_decayIT_E4typeENS4_IT0_E4typeEEEOS5_OS8_, symObjAddr: 0x3064, symBinAddr: 0x100006714, symSize: 0x38 }
  - { offsetInCU: 0x11624, offset: 0x19A9C, size: 0x8, addend: 0x0, symName: __ZNSt3__112__to_addressB8ue170006IKcEEPT_S3_, symObjAddr: 0x437C, symBinAddr: 0x100006F14, symSize: 0x14 }
  - { offsetInCU: 0x1168C, offset: 0x19B04, size: 0x8, addend: 0x0, symName: __ZNSt3__13maxB8ue170006ImEERKT_S3_S3_, symObjAddr: 0x48A4, symBinAddr: 0x10000743C, symSize: 0x2C }
  - { offsetInCU: 0x116CF, offset: 0x19B47, size: 0x8, addend: 0x0, symName: __ZNSt3__13maxB8ue170006ImNS_6__lessIvvEEEERKT_S5_S5_T0_, symObjAddr: 0x48D0, symBinAddr: 0x100007468, symSize: 0x54 }
  - { offsetInCU: 0x11729, offset: 0x19BA1, size: 0x8, addend: 0x0, symName: __ZNSt3__142__uninitialized_allocator_move_if_noexceptB8ue170006INS_9allocatorI4DateEENS_16reverse_iteratorIPS2_EES6_S2_vEET1_RT_T0_SA_S7_, symObjAddr: 0x4B5C, symBinAddr: 0x1000076F4, symSize: 0x78 }
  - { offsetInCU: 0x117A8, offset: 0x19C20, size: 0x8, addend: 0x0, symName: __ZNSt3__14swapB8ue170006IP4DateEENS_9enable_ifIXaasr21is_move_constructibleIT_EE5valuesr18is_move_assignableIS4_EE5valueEvE4typeERS4_S7_, symObjAddr: 0x4C20, symBinAddr: 0x1000077B8, symSize: 0x3C }
  - { offsetInCU: 0x117F9, offset: 0x19C71, size: 0x8, addend: 0x0, symName: __ZNSt3__14moveB8ue170006INS_16reverse_iteratorIP4DateEES4_EET0_T_S6_S5_, symObjAddr: 0x4C5C, symBinAddr: 0x1000077F4, symSize: 0x78 }
  - { offsetInCU: 0x11853, offset: 0x19CCB, size: 0x8, addend: 0x0, symName: __ZNSt3__16__moveB8ue170006INS_17_ClassicAlgPolicyENS_16reverse_iteratorIP4DateEES5_S5_EENS_4pairIT0_T2_EES7_T1_S8_, symObjAddr: 0x4CD4, symBinAddr: 0x10000786C, symSize: 0x64 }
  - { offsetInCU: 0x118BF, offset: 0x19D37, size: 0x8, addend: 0x0, symName: __ZNSt3__123__dispatch_copy_or_moveB8ue170006INS_17_ClassicAlgPolicyENS_11__move_loopIS1_EENS_14__move_trivialENS_16reverse_iteratorIP4DateEES8_S8_EENS_4pairIT2_T4_EESA_T3_SB_, symObjAddr: 0x4D38, symBinAddr: 0x1000078D0, symSize: 0x64 }
  - { offsetInCU: 0x1193D, offset: 0x19DB5, size: 0x8, addend: 0x0, symName: __ZNSt3__121__unwrap_and_dispatchB8ue170006INS_10__overloadINS_11__move_loopINS_17_ClassicAlgPolicyEEENS_14__move_trivialEEENS_16reverse_iteratorIP4DateEESA_SA_Li0EEENS_4pairIT0_T2_EESC_T1_SD_, symObjAddr: 0x4D9C, symBinAddr: 0x100007934, symSize: 0x12C }
  - { offsetInCU: 0x119CE, offset: 0x19E46, size: 0x8, addend: 0x0, symName: __ZNSt3__114__unwrap_rangeB8ue170006INS_16reverse_iteratorIP4DateEES4_EENS_4pairIT0_S6_EET_S8_, symObjAddr: 0x4EC8, symBinAddr: 0x100007A60, symSize: 0x84 }
  - { offsetInCU: 0x11B89, offset: 0x1A001, size: 0x8, addend: 0x0, symName: __ZNSt3__113__unwrap_iterB8ue170006INS_16reverse_iteratorIP4DateEENS_18__unwrap_iter_implIS4_Lb0EEELi0EEEDTclsrT0_8__unwrapclsr3stdE7declvalIT_EEEES8_, symObjAddr: 0x4FF4, symBinAddr: 0x100007B8C, symSize: 0x44 }
  - { offsetInCU: 0x11BCE, offset: 0x1A046, size: 0x8, addend: 0x0, symName: __ZNSt3__19make_pairB8ue170006INS_16reverse_iteratorIP4DateEES4_EENS_4pairINS_18__unwrap_ref_decayIT_E4typeENS6_IT0_E4typeEEEOS7_OSA_, symObjAddr: 0x5038, symBinAddr: 0x100007BD0, symSize: 0x38 }
  - { offsetInCU: 0x11C1D, offset: 0x1A095, size: 0x8, addend: 0x0, symName: __ZNSt3__114__rewrap_rangeB8ue170006INS_16reverse_iteratorIP4DateEES4_EET_S5_T0_, symObjAddr: 0x5070, symBinAddr: 0x100007C08, symSize: 0x5C }
  - { offsetInCU: 0x11C69, offset: 0x1A0E1, size: 0x8, addend: 0x0, symName: __ZNSt3__113__rewrap_iterB8ue170006INS_16reverse_iteratorIP4DateEES4_NS_18__unwrap_iter_implIS4_Lb0EEEEET_S7_T0_, symObjAddr: 0x50CC, symBinAddr: 0x100007C64, symSize: 0x74 }
  - { offsetInCU: 0x11CBE, offset: 0x1A136, size: 0x8, addend: 0x0, symName: __ZNSt3__1neB8ue170006IP4DateS2_EEbRKNS_16reverse_iteratorIT_EERKNS3_IT0_EE, symObjAddr: 0x5140, symBinAddr: 0x100007CD8, symSize: 0x48 }
  - { offsetInCU: 0x11DF1, offset: 0x1A269, size: 0x8, addend: 0x0, symName: __ZNSt3__142__uninitialized_allocator_move_if_noexceptB8ue170006INS_9allocatorIdEENS_16reverse_iteratorIPdEES5_dvEET1_RT_T0_S9_S6_, symObjAddr: 0x5AF4, symBinAddr: 0x10000868C, symSize: 0x78 }
  - { offsetInCU: 0x11E70, offset: 0x1A2E8, size: 0x8, addend: 0x0, symName: __ZNSt3__14swapB8ue170006IPdEENS_9enable_ifIXaasr21is_move_constructibleIT_EE5valuesr18is_move_assignableIS3_EE5valueEvE4typeERS3_S6_, symObjAddr: 0x5BB8, symBinAddr: 0x100008750, symSize: 0x3C }
  - { offsetInCU: 0x11EC1, offset: 0x1A339, size: 0x8, addend: 0x0, symName: __ZNSt3__14moveB8ue170006INS_16reverse_iteratorIPdEES3_EET0_T_S5_S4_, symObjAddr: 0x5BF4, symBinAddr: 0x10000878C, symSize: 0x78 }
  - { offsetInCU: 0x11F1B, offset: 0x1A393, size: 0x8, addend: 0x0, symName: __ZNSt3__16__moveB8ue170006INS_17_ClassicAlgPolicyENS_16reverse_iteratorIPdEES4_S4_EENS_4pairIT0_T2_EES6_T1_S7_, symObjAddr: 0x5C6C, symBinAddr: 0x100008804, symSize: 0x64 }
  - { offsetInCU: 0x11F87, offset: 0x1A3FF, size: 0x8, addend: 0x0, symName: __ZNSt3__123__dispatch_copy_or_moveB8ue170006INS_17_ClassicAlgPolicyENS_11__move_loopIS1_EENS_14__move_trivialENS_16reverse_iteratorIPdEES7_S7_EENS_4pairIT2_T4_EES9_T3_SA_, symObjAddr: 0x5CD0, symBinAddr: 0x100008868, symSize: 0x64 }
  - { offsetInCU: 0x12005, offset: 0x1A47D, size: 0x8, addend: 0x0, symName: __ZNSt3__121__unwrap_and_dispatchB8ue170006INS_10__overloadINS_11__move_loopINS_17_ClassicAlgPolicyEEENS_14__move_trivialEEENS_16reverse_iteratorIPdEES9_S9_Li0EEENS_4pairIT0_T2_EESB_T1_SC_, symObjAddr: 0x5D34, symBinAddr: 0x1000088CC, symSize: 0x12C }
  - { offsetInCU: 0x12096, offset: 0x1A50E, size: 0x8, addend: 0x0, symName: __ZNSt3__114__unwrap_rangeB8ue170006INS_16reverse_iteratorIPdEES3_EENS_4pairIT0_S5_EET_S7_, symObjAddr: 0x5E60, symBinAddr: 0x1000089F8, symSize: 0x84 }
  - { offsetInCU: 0x121B7, offset: 0x1A62F, size: 0x8, addend: 0x0, symName: __ZNSt3__113__unwrap_iterB8ue170006INS_16reverse_iteratorIPdEENS_18__unwrap_iter_implIS3_Lb0EEELi0EEEDTclsrT0_8__unwrapclsr3stdE7declvalIT_EEEES7_, symObjAddr: 0x5F84, symBinAddr: 0x100008B1C, symSize: 0x44 }
  - { offsetInCU: 0x121FC, offset: 0x1A674, size: 0x8, addend: 0x0, symName: __ZNSt3__19make_pairB8ue170006INS_16reverse_iteratorIPdEES3_EENS_4pairINS_18__unwrap_ref_decayIT_E4typeENS5_IT0_E4typeEEEOS6_OS9_, symObjAddr: 0x5FC8, symBinAddr: 0x100008B60, symSize: 0x38 }
  - { offsetInCU: 0x1224B, offset: 0x1A6C3, size: 0x8, addend: 0x0, symName: __ZNSt3__114__rewrap_rangeB8ue170006INS_16reverse_iteratorIPdEES3_EET_S4_T0_, symObjAddr: 0x6000, symBinAddr: 0x100008B98, symSize: 0x5C }
  - { offsetInCU: 0x12297, offset: 0x1A70F, size: 0x8, addend: 0x0, symName: __ZNSt3__113__rewrap_iterB8ue170006INS_16reverse_iteratorIPdEES3_NS_18__unwrap_iter_implIS3_Lb0EEEEET_S6_T0_, symObjAddr: 0x605C, symBinAddr: 0x100008BF4, symSize: 0x74 }
  - { offsetInCU: 0x122EC, offset: 0x1A764, size: 0x8, addend: 0x0, symName: __ZNSt3__1neB8ue170006IPdS1_EEbRKNS_16reverse_iteratorIT_EERKNS2_IT0_EE, symObjAddr: 0x60D0, symBinAddr: 0x100008C68, symSize: 0x48 }
  - { offsetInCU: 0x123A6, offset: 0x1A81E, size: 0x8, addend: 0x0, symName: __ZNSt3__1neB8ue170006ERKNS_21__hash_const_iteratorIPNS_11__hash_nodeINS_17__hash_value_typeINS_12basic_stringIcNS_11char_traitsIcEENS_9allocatorIcEEEE9RateCurveEEPvEEEESG_, symObjAddr: 0x65A4, symBinAddr: 0x10000913C, symSize: 0x34 }
  - { offsetInCU: 0x123E3, offset: 0x1A85B, size: 0x8, addend: 0x0, symName: __ZNSt3__1eqB8ue170006ERKNS_21__hash_const_iteratorIPNS_11__hash_nodeINS_17__hash_value_typeINS_12basic_stringIcNS_11char_traitsIcEENS_9allocatorIcEEEE9RateCurveEEPvEEEESG_, symObjAddr: 0x65D8, symBinAddr: 0x100009170, symSize: 0x30 }
  - { offsetInCU: 0x12487, offset: 0x1A8FF, size: 0x8, addend: 0x0, symName: __ZNSt3__17launderB8ue170006IKNS_4pairIKNS_12basic_stringIcNS_11char_traitsIcEENS_9allocatorIcEEEE9RateCurveEEEEPT_SD_, symObjAddr: 0x66C8, symBinAddr: 0x100009260, symSize: 0x24 }
  - { offsetInCU: 0x124BE, offset: 0x1A936, size: 0x8, addend: 0x0, symName: __ZNSt3__19__launderB8ue170006IKNS_4pairIKNS_12basic_stringIcNS_11char_traitsIcEENS_9allocatorIcEEEE9RateCurveEEEEPT_SD_, symObjAddr: 0x66EC, symBinAddr: 0x100009284, symSize: 0x14 }
  - { offsetInCU: 0x124F6, offset: 0x1A96E, size: 0x8, addend: 0x0, symName: __ZNSt3__1neB8ue170006ERKNS_21__hash_const_iteratorIPNS_11__hash_nodeINS_17__hash_value_typeINS_12basic_stringIcNS_11char_traitsIcEENS_9allocatorIcEEEE8VolCurveEEPvEEEESG_, symObjAddr: 0x6844, symBinAddr: 0x1000093DC, symSize: 0x34 }
  - { offsetInCU: 0x12533, offset: 0x1A9AB, size: 0x8, addend: 0x0, symName: __ZNSt3__1eqB8ue170006ERKNS_21__hash_const_iteratorIPNS_11__hash_nodeINS_17__hash_value_typeINS_12basic_stringIcNS_11char_traitsIcEENS_9allocatorIcEEEE8VolCurveEEPvEEEESG_, symObjAddr: 0x6878, symBinAddr: 0x100009410, symSize: 0x30 }
  - { offsetInCU: 0x125D7, offset: 0x1AA4F, size: 0x8, addend: 0x0, symName: __ZNSt3__17launderB8ue170006IKNS_4pairIKNS_12basic_stringIcNS_11char_traitsIcEENS_9allocatorIcEEEE8VolCurveEEEEPT_SD_, symObjAddr: 0x6968, symBinAddr: 0x100009500, symSize: 0x24 }
  - { offsetInCU: 0x1260E, offset: 0x1AA86, size: 0x8, addend: 0x0, symName: __ZNSt3__19__launderB8ue170006IKNS_4pairIKNS_12basic_stringIcNS_11char_traitsIcEENS_9allocatorIcEEEE8VolCurveEEEEPT_SD_, symObjAddr: 0x698C, symBinAddr: 0x100009524, symSize: 0x14 }
  - { offsetInCU: 0x1266B, offset: 0x1AAE3, size: 0x8, addend: 0x0, symName: __ZNSt3__116__constrain_hashB8ue170006Emm, symObjAddr: 0x6F78, symBinAddr: 0x100009B10, symSize: 0x98 }
  - { offsetInCU: 0x126A5, offset: 0x1AB1D, size: 0x8, addend: 0x0, symName: __ZNSt3__116__is_hash_power2B8ue170006Em, symObjAddr: 0x7290, symBinAddr: 0x100009E28, symSize: 0x50 }
  - { offsetInCU: 0x126D1, offset: 0x1AB49, size: 0x8, addend: 0x0, symName: __ZNSt3__116__do_string_hashB8ue170006IPKcEEmT_S3_, symObjAddr: 0x750C, symBinAddr: 0x10000A0A4, symSize: 0x3C }
  - { offsetInCU: 0x12717, offset: 0x1AB8F, size: 0x8, addend: 0x0, symName: __ZNSt3__110__loadwordB8ue170006ImEET_PKv, symObjAddr: 0x7F00, symBinAddr: 0x10000AA98, symSize: 0x20 }
  - { offsetInCU: 0x1275A, offset: 0x1ABD2, size: 0x8, addend: 0x0, symName: __ZNSt3__14swapB8ue170006ImEENS_9enable_ifIXaasr21is_move_constructibleIT_EE5valuesr18is_move_assignableIS2_EE5valueEvE4typeERS2_S5_, symObjAddr: 0x80BC, symBinAddr: 0x10000AC54, symSize: 0x3C }
  - { offsetInCU: 0x127AB, offset: 0x1AC23, size: 0x8, addend: 0x0, symName: __ZNSt3__110__loadwordB8ue170006IjEET_PKv, symObjAddr: 0x814C, symBinAddr: 0x10000ACE4, symSize: 0x20 }
  - { offsetInCU: 0x127EE, offset: 0x1AC66, size: 0x8, addend: 0x0, symName: __ZNSt3__1eqB8ue170006INS_9allocatorIcEEEEbRKNS_12basic_stringIcNS_11char_traitsIcEET_EES9_, symObjAddr: 0x8418, symBinAddr: 0x10000AFB0, symSize: 0x148 }
  - { offsetInCU: 0x1287F, offset: 0x1ACF7, size: 0x8, addend: 0x0, symName: __ZNSt3__17launderB8ue170006INS_4pairIKNS_12basic_stringIcNS_11char_traitsIcEENS_9allocatorIcEEEE9RateCurveEEEEPT_SC_, symObjAddr: 0x8A1C, symBinAddr: 0x10000B5B4, symSize: 0x24 }
  - { offsetInCU: 0x128B6, offset: 0x1AD2E, size: 0x8, addend: 0x0, symName: __ZNSt3__19__launderB8ue170006INS_4pairIKNS_12basic_stringIcNS_11char_traitsIcEENS_9allocatorIcEEEE9RateCurveEEEEPT_SC_, symObjAddr: 0x8A40, symBinAddr: 0x10000B5D8, symSize: 0x14 }
  - { offsetInCU: 0x128EE, offset: 0x1AD66, size: 0x8, addend: 0x0, symName: __ZNSt3__116__next_hash_pow2B8ue170006Em, symObjAddr: 0x8F30, symBinAddr: 0x10000BAC8, symSize: 0x6C }
  - { offsetInCU: 0x12939, offset: 0x1ADB1, size: 0x8, addend: 0x0, symName: __ZNSt3__112__libcpp_clzB8ue170006Em, symObjAddr: 0x92D8, symBinAddr: 0x10000BE70, symSize: 0x1C }
  - { offsetInCU: 0x13238, offset: 0x1B6B0, size: 0x8, addend: 0x0, symName: __ZSt28__throw_bad_array_new_lengthB8ue170006v, symObjAddr: 0x147C, symBinAddr: 0x100004B2C, symSize: 0x34 }
  - { offsetInCU: 0x1385F, offset: 0x1BCD7, size: 0x8, addend: 0x0, symName: __ZNSt3__16vectorI4DateNS_9allocatorIS1_EEE26__swap_out_circular_bufferERNS_14__split_bufferIS1_RS3_EE, symObjAddr: 0x4768, symBinAddr: 0x100007300, symSize: 0x110 }
  - { offsetInCU: 0x138B4, offset: 0x1BD2C, size: 0x8, addend: 0x0, symName: __ZNSt3__16vectorIdNS_9allocatorIdEEE26__swap_out_circular_bufferERNS_14__split_bufferIdRS2_EE, symObjAddr: 0x578C, symBinAddr: 0x100008324, symSize: 0x110 }
  - { offsetInCU: 0x1611E, offset: 0x1E596, size: 0x8, addend: 0x0, symName: __ZNK9RateCurve7displayEv, symObjAddr: 0x0, symBinAddr: 0x100003788, symSize: 0x100 }
  - { offsetInCU: 0x16162, offset: 0x1E5DA, size: 0x8, addend: 0x0, symName: __ZNKSt3__16vectorI4DateNS_9allocatorIS1_EEE4sizeB8ue170006Ev, symObjAddr: 0x218, symBinAddr: 0x1000038D4, symSize: 0x28 }
  - { offsetInCU: 0x16186, offset: 0x1E5FE, size: 0x8, addend: 0x0, symName: __ZNKSt3__16vectorI4DateNS_9allocatorIS1_EEEixB8ue170006Em, symObjAddr: 0x240, symBinAddr: 0x1000038FC, symSize: 0x2C }
  - { offsetInCU: 0x161BB, offset: 0x1E633, size: 0x8, addend: 0x0, symName: __ZNKSt3__16vectorIdNS_9allocatorIdEEEixB8ue170006Em, symObjAddr: 0x26C, symBinAddr: 0x100003928, symSize: 0x24 }
  - { offsetInCU: 0x161F0, offset: 0x1E668, size: 0x8, addend: 0x0, symName: __ZN9RateCurve7addRateE4Dated, symObjAddr: 0x290, symBinAddr: 0x10000394C, symSize: 0x98 }
  - { offsetInCU: 0x16232, offset: 0x1E6AA, size: 0x8, addend: 0x0, symName: __ZNSt3__16vectorI4DateNS_9allocatorIS1_EEE9push_backB8ue170006ERKS1_, symObjAddr: 0x328, symBinAddr: 0x1000039E4, symSize: 0x6C }
  - { offsetInCU: 0x16267, offset: 0x1E6DF, size: 0x8, addend: 0x0, symName: __ZNSt3__16vectorIdNS_9allocatorIdEEE9push_backB8ue170006ERKd, symObjAddr: 0x394, symBinAddr: 0x100003A50, symSize: 0x6C }
  - { offsetInCU: 0x1629D, offset: 0x1E715, size: 0x8, addend: 0x0, symName: __ZNK9RateCurve7getRateE4Date, symObjAddr: 0x400, symBinAddr: 0x100003ABC, symSize: 0x6C }
  - { offsetInCU: 0x162D2, offset: 0x1E74A, size: 0x8, addend: 0x0, symName: __ZNK8VolCurve7displayEv, symObjAddr: 0x46C, symBinAddr: 0x100003B28, symSize: 0x10 }
  - { offsetInCU: 0x1696C, offset: 0x1EDE4, size: 0x8, addend: 0x0, symName: __ZNK6Market5PrintEv, symObjAddr: 0x47C, symBinAddr: 0x100003B38, symSize: 0x168 }
  - { offsetInCU: 0x16A2B, offset: 0x1EEA3, size: 0x8, addend: 0x0, symName: __ZNKSt3__113unordered_mapINS_12basic_stringIcNS_11char_traitsIcEENS_9allocatorIcEEEE9RateCurveNS_4hashIS6_EENS_8equal_toIS6_EENS4_INS_4pairIKS6_S7_EEEEE5beginB8ue170006Ev, symObjAddr: 0x5E4, symBinAddr: 0x100003CA0, symSize: 0x38 }
  - { offsetInCU: 0x16A4F, offset: 0x1EEC7, size: 0x8, addend: 0x0, symName: __ZNKSt3__113unordered_mapINS_12basic_stringIcNS_11char_traitsIcEENS_9allocatorIcEEEE9RateCurveNS_4hashIS6_EENS_8equal_toIS6_EENS4_INS_4pairIKS6_S7_EEEEE3endB8ue170006Ev, symObjAddr: 0x61C, symBinAddr: 0x100003CD8, symSize: 0x38 }
  - { offsetInCU: 0x16A73, offset: 0x1EEEB, size: 0x8, addend: 0x0, symName: __ZNKSt3__125__hash_map_const_iteratorINS_21__hash_const_iteratorIPNS_11__hash_nodeINS_17__hash_value_typeINS_12basic_stringIcNS_11char_traitsIcEENS_9allocatorIcEEEE9RateCurveEEPvEEEEEdeB8ue170006Ev, symObjAddr: 0x684, symBinAddr: 0x100003D40, symSize: 0x28 }
  - { offsetInCU: 0x16A97, offset: 0x1EF0F, size: 0x8, addend: 0x0, symName: __ZNSt3__14pairIKNS_12basic_stringIcNS_11char_traitsIcEENS_9allocatorIcEEEE9RateCurveEC1B8ue170006ERKS9_, symObjAddr: 0x6AC, symBinAddr: 0x100003D68, symSize: 0x34 }
  - { offsetInCU: 0x16AC9, offset: 0x1EF41, size: 0x8, addend: 0x0, symName: __ZNSt3__14pairIKNS_12basic_stringIcNS_11char_traitsIcEENS_9allocatorIcEEEE9RateCurveED1Ev, symObjAddr: 0x6E0, symBinAddr: 0x100003D9C, symSize: 0x2C }
  - { offsetInCU: 0x16AF4, offset: 0x1EF6C, size: 0x8, addend: 0x0, symName: __ZNSt3__125__hash_map_const_iteratorINS_21__hash_const_iteratorIPNS_11__hash_nodeINS_17__hash_value_typeINS_12basic_stringIcNS_11char_traitsIcEENS_9allocatorIcEEEE9RateCurveEEPvEEEEEppB8ue170006Ev, symObjAddr: 0x70C, symBinAddr: 0x100003DC8, symSize: 0x2C }
  - { offsetInCU: 0x16B18, offset: 0x1EF90, size: 0x8, addend: 0x0, symName: __ZNKSt3__113unordered_mapINS_12basic_stringIcNS_11char_traitsIcEENS_9allocatorIcEEEE8VolCurveNS_4hashIS6_EENS_8equal_toIS6_EENS4_INS_4pairIKS6_S7_EEEEE5beginB8ue170006Ev, symObjAddr: 0x738, symBinAddr: 0x100003DF4, symSize: 0x38 }
  - { offsetInCU: 0x16B3C, offset: 0x1EFB4, size: 0x8, addend: 0x0, symName: __ZNKSt3__113unordered_mapINS_12basic_stringIcNS_11char_traitsIcEENS_9allocatorIcEEEE8VolCurveNS_4hashIS6_EENS_8equal_toIS6_EENS4_INS_4pairIKS6_S7_EEEEE3endB8ue170006Ev, symObjAddr: 0x770, symBinAddr: 0x100003E2C, symSize: 0x38 }
  - { offsetInCU: 0x16B60, offset: 0x1EFD8, size: 0x8, addend: 0x0, symName: __ZNKSt3__125__hash_map_const_iteratorINS_21__hash_const_iteratorIPNS_11__hash_nodeINS_17__hash_value_typeINS_12basic_stringIcNS_11char_traitsIcEENS_9allocatorIcEEEE8VolCurveEEPvEEEEEdeB8ue170006Ev, symObjAddr: 0x7D8, symBinAddr: 0x100003E94, symSize: 0x28 }
  - { offsetInCU: 0x16B84, offset: 0x1EFFC, size: 0x8, addend: 0x0, symName: __ZNSt3__14pairIKNS_12basic_stringIcNS_11char_traitsIcEENS_9allocatorIcEEEE8VolCurveEC1B8ue170006ERKS9_, symObjAddr: 0x800, symBinAddr: 0x100003EBC, symSize: 0x34 }
  - { offsetInCU: 0x16BB6, offset: 0x1F02E, size: 0x8, addend: 0x0, symName: __ZNSt3__14pairIKNS_12basic_stringIcNS_11char_traitsIcEENS_9allocatorIcEEEE8VolCurveED1Ev, symObjAddr: 0x834, symBinAddr: 0x100003EF0, symSize: 0x2C }
  - { offsetInCU: 0x16BE1, offset: 0x1F059, size: 0x8, addend: 0x0, symName: __ZNSt3__125__hash_map_const_iteratorINS_21__hash_const_iteratorIPNS_11__hash_nodeINS_17__hash_value_typeINS_12basic_stringIcNS_11char_traitsIcEENS_9allocatorIcEEEE8VolCurveEEPvEEEEEppB8ue170006Ev, symObjAddr: 0x860, symBinAddr: 0x100003F1C, symSize: 0x2C }
  - { offsetInCU: 0x16C05, offset: 0x1F07D, size: 0x8, addend: 0x0, symName: __ZN6Market8addCurveERKNSt3__112basic_stringIcNS0_11char_traitsIcEENS0_9allocatorIcEEEERK9RateCurve, symObjAddr: 0x88C, symBinAddr: 0x100003F48, symSize: 0x40 }
  - { offsetInCU: 0x16C48, offset: 0x1F0C0, size: 0x8, addend: 0x0, symName: __ZNSt3__113unordered_mapINS_12basic_stringIcNS_11char_traitsIcEENS_9allocatorIcEEEE9RateCurveNS_4hashIS6_EENS_8equal_toIS6_EENS4_INS_4pairIKS6_S7_EEEEE7emplaceB8ue170006IJRSD_RKS7_EEENSC_INS_19__hash_map_iteratorINS_15__hash_iteratorIPNS_11__hash_nodeINS_17__hash_value_typeIS6_S7_EEPvEEEEEEbEEDpOT_, symObjAddr: 0x8CC, symBinAddr: 0x100003F88, symSize: 0x54 }
  - { offsetInCU: 0x16C9B, offset: 0x1F113, size: 0x8, addend: 0x0, symName: __ZlsRNSt3__113basic_ostreamIcNS_11char_traitsIcEEEERK6Market, symObjAddr: 0x920, symBinAddr: 0x100003FDC, symSize: 0x3C }
  - { offsetInCU: 0x16CD5, offset: 0x1F14D, size: 0x8, addend: 0x0, symName: __ZrsRNSt3__113basic_istreamIcNS_11char_traitsIcEEEER6Market, symObjAddr: 0x95C, symBinAddr: 0x100004018, symSize: 0x30 }
  - { offsetInCU: 0x16D10, offset: 0x1F188, size: 0x8, addend: 0x0, symName: __ZNSt3__14pairIKNS_12basic_stringIcNS_11char_traitsIcEENS_9allocatorIcEEEE9RateCurveEC2B8ue170006ERKS9_, symObjAddr: 0x98C, symBinAddr: 0x100004048, symSize: 0x70 }
  - { offsetInCU: 0x16D42, offset: 0x1F1BA, size: 0x8, addend: 0x0, symName: __ZN9RateCurveC1ERKS_, symObjAddr: 0x9FC, symBinAddr: 0x1000040B8, symSize: 0x34 }
  - { offsetInCU: 0x16D76, offset: 0x1F1EE, size: 0x8, addend: 0x0, symName: __ZN9RateCurveC2ERKS_, symObjAddr: 0xA30, symBinAddr: 0x1000040EC, symSize: 0xA8 }
  - { offsetInCU: 0x16DAA, offset: 0x1F222, size: 0x8, addend: 0x0, symName: __ZNSt3__16vectorI4DateNS_9allocatorIS1_EEEC1ERKS4_, symObjAddr: 0xAD8, symBinAddr: 0x100004194, symSize: 0x34 }
  - { offsetInCU: 0x16DE4, offset: 0x1F25C, size: 0x8, addend: 0x0, symName: __ZNSt3__16vectorIdNS_9allocatorIdEEEC1ERKS3_, symObjAddr: 0xB0C, symBinAddr: 0x1000041C8, symSize: 0x34 }
  - { offsetInCU: 0x16E1E, offset: 0x1F296, size: 0x8, addend: 0x0, symName: __ZNSt3__16vectorI4DateNS_9allocatorIS1_EEED1B8ue170006Ev, symObjAddr: 0xB40, symBinAddr: 0x1000041FC, symSize: 0x2C }
  - { offsetInCU: 0x16E46, offset: 0x1F2BE, size: 0x8, addend: 0x0, symName: __ZNSt3__16vectorI4DateNS_9allocatorIS1_EEEC2ERKS4_, symObjAddr: 0xB6C, symBinAddr: 0x100004228, symSize: 0x94 }
  - { offsetInCU: 0x16E8A, offset: 0x1F302, size: 0x8, addend: 0x0, symName: __ZNSt3__116allocator_traitsINS_9allocatorI4DateEEE37select_on_container_copy_constructionB8ue170006IS3_vvEES3_RKS3_, symObjAddr: 0xC00, symBinAddr: 0x1000042BC, symSize: 0x10 }
  - { offsetInCU: 0x16EBA, offset: 0x1F332, size: 0x8, addend: 0x0, symName: __ZNKSt3__16vectorI4DateNS_9allocatorIS1_EEE7__allocB8ue170006Ev, symObjAddr: 0xC10, symBinAddr: 0x1000042CC, symSize: 0x28 }
  - { offsetInCU: 0x16EE8, offset: 0x1F360, size: 0x8, addend: 0x0, symName: __ZNSt3__117__compressed_pairIP4DateNS_9allocatorIS1_EEEC1B8ue170006IDnS4_EEOT_OT0_, symObjAddr: 0xC38, symBinAddr: 0x1000042F4, symSize: 0x3C }
  - { offsetInCU: 0x16F3E, offset: 0x1F3B6, size: 0x8, addend: 0x0, symName: __ZNSt3__16vectorI4DateNS_9allocatorIS1_EEE16__init_with_sizeB8ue170006IPS1_S6_EEvT_T0_m, symObjAddr: 0xC74, symBinAddr: 0x100004330, symSize: 0xB8 }
  - { offsetInCU: 0x16FB0, offset: 0x1F428, size: 0x8, addend: 0x0, symName: __ZNKSt3__117__compressed_pairIP4DateNS_9allocatorIS1_EEE6secondB8ue170006Ev, symObjAddr: 0xD2C, symBinAddr: 0x1000043E8, symSize: 0x24 }
  - { offsetInCU: 0x16FD4, offset: 0x1F44C, size: 0x8, addend: 0x0, symName: __ZNKSt3__122__compressed_pair_elemINS_9allocatorI4DateEELi1ELb1EE5__getB8ue170006Ev, symObjAddr: 0xD50, symBinAddr: 0x10000440C, symSize: 0x14 }
  - { offsetInCU: 0x16FF8, offset: 0x1F470, size: 0x8, addend: 0x0, symName: __ZNSt3__117__compressed_pairIP4DateNS_9allocatorIS1_EEEC2B8ue170006IDnS4_EEOT_OT0_, symObjAddr: 0xD64, symBinAddr: 0x100004420, symSize: 0x44 }
  - { offsetInCU: 0x1704E, offset: 0x1F4C6, size: 0x8, addend: 0x0, symName: __ZNSt3__122__compressed_pair_elemIP4DateLi0ELb0EEC2B8ue170006IDnvEEOT_, symObjAddr: 0xDA8, symBinAddr: 0x100004464, symSize: 0x1C }
  - { offsetInCU: 0x1708F, offset: 0x1F507, size: 0x8, addend: 0x0, symName: __ZNSt3__122__compressed_pair_elemINS_9allocatorI4DateEELi1ELb1EEC2B8ue170006IS3_vEEOT_, symObjAddr: 0xDC4, symBinAddr: 0x100004480, symSize: 0x18 }
  - { offsetInCU: 0x170D0, offset: 0x1F548, size: 0x8, addend: 0x0, symName: __ZNSt3__16vectorI4DateNS_9allocatorIS1_EEE16__destroy_vectorC1B8ue170006ERS4_, symObjAddr: 0xE1C, symBinAddr: 0x1000044D8, symSize: 0x34 }
  - { offsetInCU: 0x17107, offset: 0x1F57F, size: 0x8, addend: 0x0, symName: __ZNSt3__16vectorI4DateNS_9allocatorIS1_EEE11__vallocateB8ue170006Em, symObjAddr: 0xE50, symBinAddr: 0x10000450C, symSize: 0xB4 }
  - { offsetInCU: 0x17148, offset: 0x1F5C0, size: 0x8, addend: 0x0, symName: __ZNSt3__16vectorI4DateNS_9allocatorIS1_EEE18__construct_at_endIPS1_S6_EEvT_T0_m, symObjAddr: 0xF04, symBinAddr: 0x1000045C0, symSize: 0x8C }
  - { offsetInCU: 0x171BD, offset: 0x1F635, size: 0x8, addend: 0x0, symName: __ZNSt3__128__exception_guard_exceptionsINS_6vectorI4DateNS_9allocatorIS2_EEE16__destroy_vectorEE10__completeB8ue170006Ev, symObjAddr: 0xF90, symBinAddr: 0x10000464C, symSize: 0x1C }
  - { offsetInCU: 0x171E1, offset: 0x1F659, size: 0x8, addend: 0x0, symName: __ZNSt3__128__exception_guard_exceptionsINS_6vectorI4DateNS_9allocatorIS2_EEE16__destroy_vectorEED1B8ue170006Ev, symObjAddr: 0xFAC, symBinAddr: 0x100004668, symSize: 0x2C }
  - { offsetInCU: 0x17209, offset: 0x1F681, size: 0x8, addend: 0x0, symName: __ZNSt3__128__exception_guard_exceptionsINS_6vectorI4DateNS_9allocatorIS2_EEE16__destroy_vectorEEC1B8ue170006ES6_, symObjAddr: 0xFD8, symBinAddr: 0x100004694, symSize: 0x34 }
  - { offsetInCU: 0x1723F, offset: 0x1F6B7, size: 0x8, addend: 0x0, symName: __ZNSt3__128__exception_guard_exceptionsINS_6vectorI4DateNS_9allocatorIS2_EEE16__destroy_vectorEEC2B8ue170006ES6_, symObjAddr: 0x100C, symBinAddr: 0x1000046C8, symSize: 0x24 }
  - { offsetInCU: 0x17275, offset: 0x1F6ED, size: 0x8, addend: 0x0, symName: __ZNSt3__16vectorI4DateNS_9allocatorIS1_EEE16__destroy_vectorC2B8ue170006ERS4_, symObjAddr: 0x1030, symBinAddr: 0x1000046EC, symSize: 0x20 }
  - { offsetInCU: 0x172AB, offset: 0x1F723, size: 0x8, addend: 0x0, symName: __ZNKSt3__16vectorI4DateNS_9allocatorIS1_EEE8max_sizeEv, symObjAddr: 0x1050, symBinAddr: 0x10000470C, symSize: 0x60 }
  - { offsetInCU: 0x172D2, offset: 0x1F74A, size: 0x8, addend: 0x0, symName: __ZNKSt3__16vectorI4DateNS_9allocatorIS1_EEE20__throw_length_errorB8ue170006Ev, symObjAddr: 0x10B0, symBinAddr: 0x10000476C, symSize: 0x1C }
  - { offsetInCU: 0x172F6, offset: 0x1F76E, size: 0x8, addend: 0x0, symName: __ZNSt3__16vectorI4DateNS_9allocatorIS1_EEE7__allocB8ue170006Ev, symObjAddr: 0x110C, symBinAddr: 0x1000047C8, symSize: 0x28 }
  - { offsetInCU: 0x1731A, offset: 0x1F792, size: 0x8, addend: 0x0, symName: __ZNSt3__16vectorI4DateNS_9allocatorIS1_EEE9__end_capB8ue170006Ev, symObjAddr: 0x1134, symBinAddr: 0x1000047F0, symSize: 0x28 }
  - { offsetInCU: 0x1733E, offset: 0x1F7B6, size: 0x8, addend: 0x0, symName: __ZNKSt3__16vectorI4DateNS_9allocatorIS1_EEE14__annotate_newB8ue170006Em, symObjAddr: 0x115C, symBinAddr: 0x100004818, symSize: 0xC8 }
  - { offsetInCU: 0x17371, offset: 0x1F7E9, size: 0x8, addend: 0x0, symName: __ZNSt3__116allocator_traitsINS_9allocatorI4DateEEE8max_sizeB8ue170006IS3_vEEmRKS3_, symObjAddr: 0x1250, symBinAddr: 0x10000490C, symSize: 0x24 }
  - { offsetInCU: 0x1739F, offset: 0x1F817, size: 0x8, addend: 0x0, symName: __ZNSt3__114numeric_limitsIlE3maxB8ue170006Ev, symObjAddr: 0x1274, symBinAddr: 0x100004930, symSize: 0x14 }
  - { offsetInCU: 0x173BD, offset: 0x1F835, size: 0x8, addend: 0x0, symName: __ZNKSt3__16__lessIvvEclB8ue170006ImmEEbRKT_RKT0_, symObjAddr: 0x12E8, symBinAddr: 0x100004998, symSize: 0x34 }
  - { offsetInCU: 0x1740F, offset: 0x1F887, size: 0x8, addend: 0x0, symName: __ZNKSt3__19allocatorI4DateE8max_sizeB8ue170006Ev, symObjAddr: 0x131C, symBinAddr: 0x1000049CC, symSize: 0x18 }
  - { offsetInCU: 0x17433, offset: 0x1F8AB, size: 0x8, addend: 0x0, symName: __ZNSt3__123__libcpp_numeric_limitsIlLb1EE3maxB8ue170006Ev, symObjAddr: 0x1334, symBinAddr: 0x1000049E4, symSize: 0x8 }
  - { offsetInCU: 0x17446, offset: 0x1F8BE, size: 0x8, addend: 0x0, symName: __ZNSt12length_errorC1B8ue170006EPKc, symObjAddr: 0x13A0, symBinAddr: 0x100004A50, symSize: 0x34 }
  - { offsetInCU: 0x1747C, offset: 0x1F8F4, size: 0x8, addend: 0x0, symName: __ZNSt12length_errorC2B8ue170006EPKc, symObjAddr: 0x13D4, symBinAddr: 0x100004A84, symSize: 0x4C }
  - { offsetInCU: 0x174B2, offset: 0x1F92A, size: 0x8, addend: 0x0, symName: __ZNSt3__19allocatorI4DateE8allocateB8ue170006Em, symObjAddr: 0x1420, symBinAddr: 0x100004AD0, symSize: 0x5C }
  - { offsetInCU: 0x174E4, offset: 0x1F95C, size: 0x8, addend: 0x0, symName: __ZNSt3__117__compressed_pairIP4DateNS_9allocatorIS1_EEE6secondB8ue170006Ev, symObjAddr: 0x1580, symBinAddr: 0x100004C30, symSize: 0x24 }
  - { offsetInCU: 0x17508, offset: 0x1F980, size: 0x8, addend: 0x0, symName: __ZNSt3__122__compressed_pair_elemINS_9allocatorI4DateEELi1ELb1EE5__getB8ue170006Ev, symObjAddr: 0x15A4, symBinAddr: 0x100004C54, symSize: 0x14 }
  - { offsetInCU: 0x1752C, offset: 0x1F9A4, size: 0x8, addend: 0x0, symName: __ZNSt3__117__compressed_pairIP4DateNS_9allocatorIS1_EEE5firstB8ue170006Ev, symObjAddr: 0x15B8, symBinAddr: 0x100004C68, symSize: 0x24 }
  - { offsetInCU: 0x17550, offset: 0x1F9C8, size: 0x8, addend: 0x0, symName: __ZNSt3__122__compressed_pair_elemIP4DateLi0ELb0EE5__getB8ue170006Ev, symObjAddr: 0x15DC, symBinAddr: 0x100004C8C, symSize: 0x14 }
  - { offsetInCU: 0x17574, offset: 0x1F9EC, size: 0x8, addend: 0x0, symName: __ZNKSt3__16vectorI4DateNS_9allocatorIS1_EEE31__annotate_contiguous_containerB8ue170006EPKvS6_S6_S6_, symObjAddr: 0x15F0, symBinAddr: 0x100004CA0, symSize: 0x20 }
  - { offsetInCU: 0x175C8, offset: 0x1FA40, size: 0x8, addend: 0x0, symName: __ZNKSt3__16vectorI4DateNS_9allocatorIS1_EEE4dataB8ue170006Ev, symObjAddr: 0x1610, symBinAddr: 0x100004CC0, symSize: 0x28 }
  - { offsetInCU: 0x175EC, offset: 0x1FA64, size: 0x8, addend: 0x0, symName: __ZNKSt3__16vectorI4DateNS_9allocatorIS1_EEE8capacityB8ue170006Ev, symObjAddr: 0x1638, symBinAddr: 0x100004CE8, symSize: 0x40 }
  - { offsetInCU: 0x17610, offset: 0x1FA88, size: 0x8, addend: 0x0, symName: __ZNKSt3__16vectorI4DateNS_9allocatorIS1_EEE9__end_capB8ue170006Ev, symObjAddr: 0x168C, symBinAddr: 0x100004D3C, symSize: 0x28 }
  - { offsetInCU: 0x17634, offset: 0x1FAAC, size: 0x8, addend: 0x0, symName: __ZNKSt3__117__compressed_pairIP4DateNS_9allocatorIS1_EEE5firstB8ue170006Ev, symObjAddr: 0x16B4, symBinAddr: 0x100004D64, symSize: 0x24 }
  - { offsetInCU: 0x17658, offset: 0x1FAD0, size: 0x8, addend: 0x0, symName: __ZNKSt3__122__compressed_pair_elemIP4DateLi0ELb0EE5__getB8ue170006Ev, symObjAddr: 0x16D8, symBinAddr: 0x100004D88, symSize: 0x14 }
  - { offsetInCU: 0x17695, offset: 0x1FB0D, size: 0x8, addend: 0x0, symName: __ZNSt3__16vectorI4DateNS_9allocatorIS1_EEE21_ConstructTransactionC1B8ue170006ERS4_m, symObjAddr: 0x16EC, symBinAddr: 0x100004D9C, symSize: 0x3C }
  - { offsetInCU: 0x176DB, offset: 0x1FB53, size: 0x8, addend: 0x0, symName: __ZNSt3__16vectorI4DateNS_9allocatorIS1_EEE21_ConstructTransactionD1B8ue170006Ev, symObjAddr: 0x17A8, symBinAddr: 0x100004E58, symSize: 0x2C }
  - { offsetInCU: 0x17703, offset: 0x1FB7B, size: 0x8, addend: 0x0, symName: __ZNSt3__16vectorI4DateNS_9allocatorIS1_EEE21_ConstructTransactionC2B8ue170006ERS4_m, symObjAddr: 0x17D4, symBinAddr: 0x100004E84, symSize: 0x4C }
  - { offsetInCU: 0x17767, offset: 0x1FBDF, size: 0x8, addend: 0x0, symName: __ZNSt3__14pairIP4DateS2_EC1B8ue170006IS2_S2_LPv0EEEOT_OT0_, symObjAddr: 0x1950, symBinAddr: 0x100005000, symSize: 0x3C }
  - { offsetInCU: 0x177C4, offset: 0x1FC3C, size: 0x8, addend: 0x0, symName: __ZNSt3__14pairIP4DateS2_EC2B8ue170006IS2_S2_LPv0EEEOT_OT0_, symObjAddr: 0x198C, symBinAddr: 0x10000503C, symSize: 0x34 }
  - { offsetInCU: 0x1782B, offset: 0x1FCA3, size: 0x8, addend: 0x0, symName: __ZNKSt3__114__copy_trivialclB8ue170006I4DateS2_Li0EEENS_4pairIPT_PT0_EES5_S5_S7_, symObjAddr: 0x1B3C, symBinAddr: 0x1000051EC, symSize: 0x48 }
  - { offsetInCU: 0x17892, offset: 0x1FD0A, size: 0x8, addend: 0x0, symName: __ZNSt3__14pairIP4DateS2_EC1B8ue170006IRS2_S2_LPv0EEEOT_OT0_, symObjAddr: 0x1CD8, symBinAddr: 0x100005388, symSize: 0x3C }
  - { offsetInCU: 0x178EF, offset: 0x1FD67, size: 0x8, addend: 0x0, symName: __ZNSt3__14pairIP4DateS2_EC2B8ue170006IRS2_S2_LPv0EEEOT_OT0_, symObjAddr: 0x1D14, symBinAddr: 0x1000053C4, symSize: 0x34 }
  - { offsetInCU: 0x1794C, offset: 0x1FDC4, size: 0x8, addend: 0x0, symName: __ZNSt3__118__unwrap_iter_implIP4DateLb1EE8__unwrapB8ue170006ES2_, symObjAddr: 0x1D48, symBinAddr: 0x1000053F8, symSize: 0x24 }
  - { offsetInCU: 0x1796E, offset: 0x1FDE6, size: 0x8, addend: 0x0, symName: __ZNSt3__118__unwrap_iter_implIP4DateLb1EE8__rewrapB8ue170006ES2_S2_, symObjAddr: 0x1D6C, symBinAddr: 0x10000541C, symSize: 0x58 }
  - { offsetInCU: 0x1799E, offset: 0x1FE16, size: 0x8, addend: 0x0, symName: __ZNSt3__16vectorI4DateNS_9allocatorIS1_EEE21_ConstructTransactionD2B8ue170006Ev, symObjAddr: 0x1DC4, symBinAddr: 0x100005474, symSize: 0x20 }
  - { offsetInCU: 0x179C6, offset: 0x1FE3E, size: 0x8, addend: 0x0, symName: __ZNSt3__128__exception_guard_exceptionsINS_6vectorI4DateNS_9allocatorIS2_EEE16__destroy_vectorEED2B8ue170006Ev, symObjAddr: 0x1DE4, symBinAddr: 0x100005494, symSize: 0x50 }
  - { offsetInCU: 0x179EE, offset: 0x1FE66, size: 0x8, addend: 0x0, symName: __ZNSt3__16vectorI4DateNS_9allocatorIS1_EEE16__destroy_vectorclB8ue170006Ev, symObjAddr: 0x1E34, symBinAddr: 0x1000054E4, symSize: 0x90 }
  - { offsetInCU: 0x17A12, offset: 0x1FE8A, size: 0x8, addend: 0x0, symName: __ZNSt3__16vectorI4DateNS_9allocatorIS1_EEE7__clearB8ue170006Ev, symObjAddr: 0x1EC4, symBinAddr: 0x100005574, symSize: 0x28 }
  - { offsetInCU: 0x17A36, offset: 0x1FEAE, size: 0x8, addend: 0x0, symName: __ZNKSt3__16vectorI4DateNS_9allocatorIS1_EEE17__annotate_deleteB8ue170006Ev, symObjAddr: 0x1EEC, symBinAddr: 0x10000559C, symSize: 0xD4 }
  - { offsetInCU: 0x17A5A, offset: 0x1FED2, size: 0x8, addend: 0x0, symName: __ZNSt3__116allocator_traitsINS_9allocatorI4DateEEE10deallocateB8ue170006ERS3_PS2_m, symObjAddr: 0x1FC0, symBinAddr: 0x100005670, symSize: 0x34 }
  - { offsetInCU: 0x17A9B, offset: 0x1FF13, size: 0x8, addend: 0x0, symName: __ZNSt3__16vectorI4DateNS_9allocatorIS1_EEE22__base_destruct_at_endB8ue170006EPS1_, symObjAddr: 0x1FF4, symBinAddr: 0x1000056A4, symSize: 0x8C }
  - { offsetInCU: 0x17ADD, offset: 0x1FF55, size: 0x8, addend: 0x0, symName: __ZNSt3__116allocator_traitsINS_9allocatorI4DateEEE7destroyB8ue170006IS2_vEEvRS3_PT_, symObjAddr: 0x2080, symBinAddr: 0x100005730, symSize: 0x2C }
  - { offsetInCU: 0x17B1A, offset: 0x1FF92, size: 0x8, addend: 0x0, symName: __ZNSt3__19allocatorI4DateE7destroyB8ue170006EPS1_, symObjAddr: 0x20AC, symBinAddr: 0x10000575C, symSize: 0x14 }
  - { offsetInCU: 0x17B4C, offset: 0x1FFC4, size: 0x8, addend: 0x0, symName: __ZNSt3__19allocatorI4DateE10deallocateB8ue170006EPS1_m, symObjAddr: 0x20C0, symBinAddr: 0x100005770, symSize: 0x44 }
  - { offsetInCU: 0x17B8C, offset: 0x20004, size: 0x8, addend: 0x0, symName: __ZNSt3__16vectorIdNS_9allocatorIdEEEC2ERKS3_, symObjAddr: 0x220C, symBinAddr: 0x1000058BC, symSize: 0x94 }
  - { offsetInCU: 0x17BD0, offset: 0x20048, size: 0x8, addend: 0x0, symName: __ZNSt3__116allocator_traitsINS_9allocatorIdEEE37select_on_container_copy_constructionB8ue170006IS2_vvEES2_RKS2_, symObjAddr: 0x22A0, symBinAddr: 0x100005950, symSize: 0x10 }
  - { offsetInCU: 0x17C00, offset: 0x20078, size: 0x8, addend: 0x0, symName: __ZNKSt3__16vectorIdNS_9allocatorIdEEE7__allocB8ue170006Ev, symObjAddr: 0x22B0, symBinAddr: 0x100005960, symSize: 0x28 }
  - { offsetInCU: 0x17C29, offset: 0x200A1, size: 0x8, addend: 0x0, symName: __ZNSt3__117__compressed_pairIPdNS_9allocatorIdEEEC1B8ue170006IDnS3_EEOT_OT0_, symObjAddr: 0x22D8, symBinAddr: 0x100005988, symSize: 0x3C }
  - { offsetInCU: 0x17C7F, offset: 0x200F7, size: 0x8, addend: 0x0, symName: __ZNSt3__16vectorIdNS_9allocatorIdEEE16__init_with_sizeB8ue170006IPdS5_EEvT_T0_m, symObjAddr: 0x2314, symBinAddr: 0x1000059C4, symSize: 0xB8 }
  - { offsetInCU: 0x17CF1, offset: 0x20169, size: 0x8, addend: 0x0, symName: __ZNKSt3__16vectorIdNS_9allocatorIdEEE4sizeB8ue170006Ev, symObjAddr: 0x23CC, symBinAddr: 0x100005A7C, symSize: 0x28 }
  - { offsetInCU: 0x17D15, offset: 0x2018D, size: 0x8, addend: 0x0, symName: __ZNKSt3__117__compressed_pairIPdNS_9allocatorIdEEE6secondB8ue170006Ev, symObjAddr: 0x23F4, symBinAddr: 0x100005AA4, symSize: 0x24 }
  - { offsetInCU: 0x17D39, offset: 0x201B1, size: 0x8, addend: 0x0, symName: __ZNKSt3__122__compressed_pair_elemINS_9allocatorIdEELi1ELb1EE5__getB8ue170006Ev, symObjAddr: 0x2418, symBinAddr: 0x100005AC8, symSize: 0x14 }
  - { offsetInCU: 0x17D5D, offset: 0x201D5, size: 0x8, addend: 0x0, symName: __ZNSt3__117__compressed_pairIPdNS_9allocatorIdEEEC2B8ue170006IDnS3_EEOT_OT0_, symObjAddr: 0x242C, symBinAddr: 0x100005ADC, symSize: 0x44 }
  - { offsetInCU: 0x17DB3, offset: 0x2022B, size: 0x8, addend: 0x0, symName: __ZNSt3__122__compressed_pair_elemIPdLi0ELb0EEC2B8ue170006IDnvEEOT_, symObjAddr: 0x2470, symBinAddr: 0x100005B20, symSize: 0x1C }
  - { offsetInCU: 0x17DF4, offset: 0x2026C, size: 0x8, addend: 0x0, symName: __ZNSt3__122__compressed_pair_elemINS_9allocatorIdEELi1ELb1EEC2B8ue170006IS2_vEEOT_, symObjAddr: 0x248C, symBinAddr: 0x100005B3C, symSize: 0x18 }
  - { offsetInCU: 0x17E35, offset: 0x202AD, size: 0x8, addend: 0x0, symName: __ZNSt3__16vectorIdNS_9allocatorIdEEE16__destroy_vectorC1B8ue170006ERS3_, symObjAddr: 0x24E4, symBinAddr: 0x100005B94, symSize: 0x34 }
  - { offsetInCU: 0x17E6C, offset: 0x202E4, size: 0x8, addend: 0x0, symName: __ZNSt3__16vectorIdNS_9allocatorIdEEE11__vallocateB8ue170006Em, symObjAddr: 0x2518, symBinAddr: 0x100005BC8, symSize: 0xAC }
  - { offsetInCU: 0x17EAD, offset: 0x20325, size: 0x8, addend: 0x0, symName: __ZNSt3__16vectorIdNS_9allocatorIdEEE18__construct_at_endIPdS5_EEvT_T0_m, symObjAddr: 0x25C4, symBinAddr: 0x100005C74, symSize: 0x8C }
  - { offsetInCU: 0x17F22, offset: 0x2039A, size: 0x8, addend: 0x0, symName: __ZNSt3__128__exception_guard_exceptionsINS_6vectorIdNS_9allocatorIdEEE16__destroy_vectorEE10__completeB8ue170006Ev, symObjAddr: 0x2650, symBinAddr: 0x100005D00, symSize: 0x1C }
  - { offsetInCU: 0x17F46, offset: 0x203BE, size: 0x8, addend: 0x0, symName: __ZNSt3__128__exception_guard_exceptionsINS_6vectorIdNS_9allocatorIdEEE16__destroy_vectorEED1B8ue170006Ev, symObjAddr: 0x266C, symBinAddr: 0x100005D1C, symSize: 0x2C }
  - { offsetInCU: 0x17F6E, offset: 0x203E6, size: 0x8, addend: 0x0, symName: __ZNSt3__128__exception_guard_exceptionsINS_6vectorIdNS_9allocatorIdEEE16__destroy_vectorEEC1B8ue170006ES5_, symObjAddr: 0x2698, symBinAddr: 0x100005D48, symSize: 0x34 }
  - { offsetInCU: 0x17FA4, offset: 0x2041C, size: 0x8, addend: 0x0, symName: __ZNSt3__128__exception_guard_exceptionsINS_6vectorIdNS_9allocatorIdEEE16__destroy_vectorEEC2B8ue170006ES5_, symObjAddr: 0x26CC, symBinAddr: 0x100005D7C, symSize: 0x24 }
  - { offsetInCU: 0x17FDA, offset: 0x20452, size: 0x8, addend: 0x0, symName: __ZNSt3__16vectorIdNS_9allocatorIdEEE16__destroy_vectorC2B8ue170006ERS3_, symObjAddr: 0x26F0, symBinAddr: 0x100005DA0, symSize: 0x20 }
  - { offsetInCU: 0x18010, offset: 0x20488, size: 0x8, addend: 0x0, symName: __ZNKSt3__16vectorIdNS_9allocatorIdEEE8max_sizeEv, symObjAddr: 0x2710, symBinAddr: 0x100005DC0, symSize: 0x60 }
  - { offsetInCU: 0x18037, offset: 0x204AF, size: 0x8, addend: 0x0, symName: __ZNKSt3__16vectorIdNS_9allocatorIdEEE20__throw_length_errorB8ue170006Ev, symObjAddr: 0x2770, symBinAddr: 0x100005E20, symSize: 0x1C }
  - { offsetInCU: 0x1805B, offset: 0x204D3, size: 0x8, addend: 0x0, symName: __ZNSt3__16vectorIdNS_9allocatorIdEEE7__allocB8ue170006Ev, symObjAddr: 0x27CC, symBinAddr: 0x100005E7C, symSize: 0x28 }
  - { offsetInCU: 0x1807F, offset: 0x204F7, size: 0x8, addend: 0x0, symName: __ZNSt3__16vectorIdNS_9allocatorIdEEE9__end_capB8ue170006Ev, symObjAddr: 0x27F4, symBinAddr: 0x100005EA4, symSize: 0x28 }
  - { offsetInCU: 0x180A3, offset: 0x2051B, size: 0x8, addend: 0x0, symName: __ZNKSt3__16vectorIdNS_9allocatorIdEEE14__annotate_newB8ue170006Em, symObjAddr: 0x281C, symBinAddr: 0x100005ECC, symSize: 0xAC }
  - { offsetInCU: 0x180D6, offset: 0x2054E, size: 0x8, addend: 0x0, symName: __ZNSt3__116allocator_traitsINS_9allocatorIdEEE8max_sizeB8ue170006IS2_vEEmRKS2_, symObjAddr: 0x28C8, symBinAddr: 0x100005F78, symSize: 0x24 }
  - { offsetInCU: 0x18104, offset: 0x2057C, size: 0x8, addend: 0x0, symName: __ZNKSt3__19allocatorIdE8max_sizeB8ue170006Ev, symObjAddr: 0x28EC, symBinAddr: 0x100005F9C, symSize: 0x14 }
  - { offsetInCU: 0x18128, offset: 0x205A0, size: 0x8, addend: 0x0, symName: __ZNSt3__19allocatorIdE8allocateB8ue170006Em, symObjAddr: 0x2900, symBinAddr: 0x100005FB0, symSize: 0x58 }
  - { offsetInCU: 0x1815A, offset: 0x205D2, size: 0x8, addend: 0x0, symName: __ZNSt3__117__compressed_pairIPdNS_9allocatorIdEEE6secondB8ue170006Ev, symObjAddr: 0x2958, symBinAddr: 0x100006008, symSize: 0x24 }
  - { offsetInCU: 0x1817E, offset: 0x205F6, size: 0x8, addend: 0x0, symName: __ZNSt3__122__compressed_pair_elemINS_9allocatorIdEELi1ELb1EE5__getB8ue170006Ev, symObjAddr: 0x297C, symBinAddr: 0x10000602C, symSize: 0x14 }
  - { offsetInCU: 0x181A2, offset: 0x2061A, size: 0x8, addend: 0x0, symName: __ZNSt3__117__compressed_pairIPdNS_9allocatorIdEEE5firstB8ue170006Ev, symObjAddr: 0x2990, symBinAddr: 0x100006040, symSize: 0x24 }
  - { offsetInCU: 0x181C6, offset: 0x2063E, size: 0x8, addend: 0x0, symName: __ZNSt3__122__compressed_pair_elemIPdLi0ELb0EE5__getB8ue170006Ev, symObjAddr: 0x29B4, symBinAddr: 0x100006064, symSize: 0x14 }
  - { offsetInCU: 0x181EA, offset: 0x20662, size: 0x8, addend: 0x0, symName: __ZNKSt3__16vectorIdNS_9allocatorIdEEE31__annotate_contiguous_containerB8ue170006EPKvS5_S5_S5_, symObjAddr: 0x29C8, symBinAddr: 0x100006078, symSize: 0x20 }
  - { offsetInCU: 0x1823E, offset: 0x206B6, size: 0x8, addend: 0x0, symName: __ZNKSt3__16vectorIdNS_9allocatorIdEEE4dataB8ue170006Ev, symObjAddr: 0x29E8, symBinAddr: 0x100006098, symSize: 0x28 }
  - { offsetInCU: 0x18262, offset: 0x206DA, size: 0x8, addend: 0x0, symName: __ZNKSt3__16vectorIdNS_9allocatorIdEEE8capacityB8ue170006Ev, symObjAddr: 0x2A10, symBinAddr: 0x1000060C0, symSize: 0x40 }
  - { offsetInCU: 0x18286, offset: 0x206FE, size: 0x8, addend: 0x0, symName: __ZNKSt3__16vectorIdNS_9allocatorIdEEE9__end_capB8ue170006Ev, symObjAddr: 0x2A64, symBinAddr: 0x100006114, symSize: 0x28 }
  - { offsetInCU: 0x182AA, offset: 0x20722, size: 0x8, addend: 0x0, symName: __ZNKSt3__117__compressed_pairIPdNS_9allocatorIdEEE5firstB8ue170006Ev, symObjAddr: 0x2A8C, symBinAddr: 0x10000613C, symSize: 0x24 }
  - { offsetInCU: 0x182CE, offset: 0x20746, size: 0x8, addend: 0x0, symName: __ZNKSt3__122__compressed_pair_elemIPdLi0ELb0EE5__getB8ue170006Ev, symObjAddr: 0x2AB0, symBinAddr: 0x100006160, symSize: 0x14 }
  - { offsetInCU: 0x1830B, offset: 0x20783, size: 0x8, addend: 0x0, symName: __ZNSt3__16vectorIdNS_9allocatorIdEEE21_ConstructTransactionC1B8ue170006ERS3_m, symObjAddr: 0x2AC4, symBinAddr: 0x100006174, symSize: 0x3C }
  - { offsetInCU: 0x18351, offset: 0x207C9, size: 0x8, addend: 0x0, symName: __ZNSt3__16vectorIdNS_9allocatorIdEEE21_ConstructTransactionD1B8ue170006Ev, symObjAddr: 0x2B80, symBinAddr: 0x100006230, symSize: 0x2C }
  - { offsetInCU: 0x18379, offset: 0x207F1, size: 0x8, addend: 0x0, symName: __ZNSt3__16vectorIdNS_9allocatorIdEEE21_ConstructTransactionC2B8ue170006ERS3_m, symObjAddr: 0x2BAC, symBinAddr: 0x10000625C, symSize: 0x44 }
  - { offsetInCU: 0x183DD, offset: 0x20855, size: 0x8, addend: 0x0, symName: __ZNSt3__14pairIPdS1_EC1B8ue170006IS1_S1_LPv0EEEOT_OT0_, symObjAddr: 0x2D20, symBinAddr: 0x1000063D0, symSize: 0x3C }
  - { offsetInCU: 0x1843A, offset: 0x208B2, size: 0x8, addend: 0x0, symName: __ZNSt3__14pairIPdS1_EC2B8ue170006IS1_S1_LPv0EEEOT_OT0_, symObjAddr: 0x2D5C, symBinAddr: 0x10000640C, symSize: 0x34 }
  - { offsetInCU: 0x18497, offset: 0x2090F, size: 0x8, addend: 0x0, symName: __ZNKSt3__114__copy_trivialclB8ue170006IddLi0EEENS_4pairIPT_PT0_EES4_S4_S6_, symObjAddr: 0x2F0C, symBinAddr: 0x1000065BC, symSize: 0x48 }
  - { offsetInCU: 0x184FE, offset: 0x20976, size: 0x8, addend: 0x0, symName: __ZNSt3__14pairIPdS1_EC1B8ue170006IRS1_S1_LPv0EEEOT_OT0_, symObjAddr: 0x309C, symBinAddr: 0x10000674C, symSize: 0x3C }
  - { offsetInCU: 0x1855B, offset: 0x209D3, size: 0x8, addend: 0x0, symName: __ZNSt3__14pairIPdS1_EC2B8ue170006IRS1_S1_LPv0EEEOT_OT0_, symObjAddr: 0x30D8, symBinAddr: 0x100006788, symSize: 0x34 }
  - { offsetInCU: 0x185B8, offset: 0x20A30, size: 0x8, addend: 0x0, symName: __ZNSt3__118__unwrap_iter_implIPdLb1EE8__unwrapB8ue170006ES1_, symObjAddr: 0x310C, symBinAddr: 0x1000067BC, symSize: 0x24 }
  - { offsetInCU: 0x185DA, offset: 0x20A52, size: 0x8, addend: 0x0, symName: __ZNSt3__118__unwrap_iter_implIPdLb1EE8__rewrapB8ue170006ES1_S1_, symObjAddr: 0x3130, symBinAddr: 0x1000067E0, symSize: 0x50 }
  - { offsetInCU: 0x1860A, offset: 0x20A82, size: 0x8, addend: 0x0, symName: __ZNSt3__16vectorIdNS_9allocatorIdEEE21_ConstructTransactionD2B8ue170006Ev, symObjAddr: 0x3180, symBinAddr: 0x100006830, symSize: 0x20 }
  - { offsetInCU: 0x18632, offset: 0x20AAA, size: 0x8, addend: 0x0, symName: __ZNSt3__128__exception_guard_exceptionsINS_6vectorIdNS_9allocatorIdEEE16__destroy_vectorEED2B8ue170006Ev, symObjAddr: 0x31A0, symBinAddr: 0x100006850, symSize: 0x50 }
  - { offsetInCU: 0x1865A, offset: 0x20AD2, size: 0x8, addend: 0x0, symName: __ZNSt3__16vectorIdNS_9allocatorIdEEE16__destroy_vectorclB8ue170006Ev, symObjAddr: 0x31F0, symBinAddr: 0x1000068A0, symSize: 0x90 }
  - { offsetInCU: 0x1867E, offset: 0x20AF6, size: 0x8, addend: 0x0, symName: __ZNSt3__16vectorIdNS_9allocatorIdEEE7__clearB8ue170006Ev, symObjAddr: 0x3280, symBinAddr: 0x100006930, symSize: 0x28 }
  - { offsetInCU: 0x186A2, offset: 0x20B1A, size: 0x8, addend: 0x0, symName: __ZNKSt3__16vectorIdNS_9allocatorIdEEE17__annotate_deleteB8ue170006Ev, symObjAddr: 0x32A8, symBinAddr: 0x100006958, symSize: 0xB8 }
  - { offsetInCU: 0x186C6, offset: 0x20B3E, size: 0x8, addend: 0x0, symName: __ZNSt3__116allocator_traitsINS_9allocatorIdEEE10deallocateB8ue170006ERS2_Pdm, symObjAddr: 0x3360, symBinAddr: 0x100006A10, symSize: 0x34 }
  - { offsetInCU: 0x18707, offset: 0x20B7F, size: 0x8, addend: 0x0, symName: __ZNSt3__16vectorIdNS_9allocatorIdEEE22__base_destruct_at_endB8ue170006EPd, symObjAddr: 0x3394, symBinAddr: 0x100006A44, symSize: 0x8C }
  - { offsetInCU: 0x18749, offset: 0x20BC1, size: 0x8, addend: 0x0, symName: __ZNSt3__116allocator_traitsINS_9allocatorIdEEE7destroyB8ue170006IdvEEvRS2_PT_, symObjAddr: 0x3420, symBinAddr: 0x100006AD0, symSize: 0x2C }
  - { offsetInCU: 0x18786, offset: 0x20BFE, size: 0x8, addend: 0x0, symName: __ZNSt3__19allocatorIdE7destroyB8ue170006EPd, symObjAddr: 0x344C, symBinAddr: 0x100006AFC, symSize: 0x14 }
  - { offsetInCU: 0x187B8, offset: 0x20C30, size: 0x8, addend: 0x0, symName: __ZNSt3__19allocatorIdE10deallocateB8ue170006EPdm, symObjAddr: 0x3460, symBinAddr: 0x100006B10, symSize: 0x40 }
  - { offsetInCU: 0x187F8, offset: 0x20C70, size: 0x8, addend: 0x0, symName: __ZNSt3__16vectorI4DateNS_9allocatorIS1_EEED2B8ue170006Ev, symObjAddr: 0x34A0, symBinAddr: 0x100006B50, symSize: 0x40 }
  - { offsetInCU: 0x18820, offset: 0x20C98, size: 0x8, addend: 0x0, symName: __ZNSt3__14pairIKNS_12basic_stringIcNS_11char_traitsIcEENS_9allocatorIcEEEE9RateCurveED2Ev, symObjAddr: 0x34E0, symBinAddr: 0x100006B90, symSize: 0x38 }
  - { offsetInCU: 0x1884B, offset: 0x20CC3, size: 0x8, addend: 0x0, symName: __ZN9RateCurveD1Ev, symObjAddr: 0x3518, symBinAddr: 0x100006BC8, symSize: 0x2C }
  - { offsetInCU: 0x18876, offset: 0x20CEE, size: 0x8, addend: 0x0, symName: __ZN9RateCurveD2Ev, symObjAddr: 0x3544, symBinAddr: 0x100006BF4, symSize: 0x44 }
  - { offsetInCU: 0x188A1, offset: 0x20D19, size: 0x8, addend: 0x0, symName: __ZNSt3__16vectorIdNS_9allocatorIdEEED1B8ue170006Ev, symObjAddr: 0x3588, symBinAddr: 0x100006C38, symSize: 0x2C }
  - { offsetInCU: 0x188C9, offset: 0x20D41, size: 0x8, addend: 0x0, symName: __ZNSt3__16vectorIdNS_9allocatorIdEEED2B8ue170006Ev, symObjAddr: 0x35B4, symBinAddr: 0x100006C64, symSize: 0x40 }
  - { offsetInCU: 0x188F1, offset: 0x20D69, size: 0x8, addend: 0x0, symName: __ZNSt3__14pairIKNS_12basic_stringIcNS_11char_traitsIcEENS_9allocatorIcEEEE8VolCurveEC2B8ue170006ERKS9_, symObjAddr: 0x35F4, symBinAddr: 0x100006CA4, symSize: 0x70 }
  - { offsetInCU: 0x18923, offset: 0x20D9B, size: 0x8, addend: 0x0, symName: __ZN8VolCurveC1ERKS_, symObjAddr: 0x3664, symBinAddr: 0x100006D14, symSize: 0x34 }
  - { offsetInCU: 0x18957, offset: 0x20DCF, size: 0x8, addend: 0x0, symName: __ZN8VolCurveC2ERKS_, symObjAddr: 0x3698, symBinAddr: 0x100006D48, symSize: 0xA8 }
  - { offsetInCU: 0x1898B, offset: 0x20E03, size: 0x8, addend: 0x0, symName: __ZNSt3__14pairIKNS_12basic_stringIcNS_11char_traitsIcEENS_9allocatorIcEEEE8VolCurveED2Ev, symObjAddr: 0x3740, symBinAddr: 0x100006DF0, symSize: 0x38 }
  - { offsetInCU: 0x189B6, offset: 0x20E2E, size: 0x8, addend: 0x0, symName: __ZN8VolCurveD1Ev, symObjAddr: 0x3778, symBinAddr: 0x100006E28, symSize: 0x2C }
  - { offsetInCU: 0x189E1, offset: 0x20E59, size: 0x8, addend: 0x0, symName: __ZN8VolCurveD2Ev, symObjAddr: 0x37A4, symBinAddr: 0x100006E54, symSize: 0x44 }
  - { offsetInCU: 0x18A2A, offset: 0x20EA2, size: 0x8, addend: 0x0, symName: __ZNKSt3__112basic_stringIcNS_11char_traitsIcEENS_9allocatorIcEEE4dataB8ue170006Ev, symObjAddr: 0x4300, symBinAddr: 0x100006E98, symSize: 0x28 }
  - { offsetInCU: 0x18A4E, offset: 0x20EC6, size: 0x8, addend: 0x0, symName: __ZNKSt3__112basic_stringIcNS_11char_traitsIcEENS_9allocatorIcEEE4sizeB8ue170006Ev, symObjAddr: 0x4328, symBinAddr: 0x100006EC0, symSize: 0x54 }
  - { offsetInCU: 0x18A72, offset: 0x20EEA, size: 0x8, addend: 0x0, symName: __ZNKSt3__112basic_stringIcNS_11char_traitsIcEENS_9allocatorIcEEE13__get_pointerB8ue170006Ev, symObjAddr: 0x4390, symBinAddr: 0x100006F28, symSize: 0x54 }
  - { offsetInCU: 0x18A96, offset: 0x20F0E, size: 0x8, addend: 0x0, symName: __ZNKSt3__112basic_stringIcNS_11char_traitsIcEENS_9allocatorIcEEE18__get_long_pointerB8ue170006Ev, symObjAddr: 0x43E4, symBinAddr: 0x100006F7C, symSize: 0x28 }
  - { offsetInCU: 0x18ABA, offset: 0x20F32, size: 0x8, addend: 0x0, symName: __ZNKSt3__112basic_stringIcNS_11char_traitsIcEENS_9allocatorIcEEE19__get_short_pointerB8ue170006Ev, symObjAddr: 0x440C, symBinAddr: 0x100006FA4, symSize: 0x28 }
  - { offsetInCU: 0x18ADE, offset: 0x20F56, size: 0x8, addend: 0x0, symName: __ZNSt3__114pointer_traitsIPKcE10pointer_toB8ue170006ERS1_, symObjAddr: 0x4434, symBinAddr: 0x100006FCC, symSize: 0x14 }
  - { offsetInCU: 0x18B00, offset: 0x20F78, size: 0x8, addend: 0x0, symName: __ZNKSt3__112basic_stringIcNS_11char_traitsIcEENS_9allocatorIcEEE15__get_long_sizeB8ue170006Ev, symObjAddr: 0x4448, symBinAddr: 0x100006FE0, symSize: 0x28 }
  - { offsetInCU: 0x18B24, offset: 0x20F9C, size: 0x8, addend: 0x0, symName: __ZNKSt3__112basic_stringIcNS_11char_traitsIcEENS_9allocatorIcEEE16__get_short_sizeB8ue170006Ev, symObjAddr: 0x4470, symBinAddr: 0x100007008, symSize: 0x34 }
  - { offsetInCU: 0x18B48, offset: 0x20FC0, size: 0x8, addend: 0x0, symName: __ZNSt3__16vectorI4DateNS_9allocatorIS1_EEE22__construct_one_at_endB8ue170006IJRKS1_EEEvDpOT_, symObjAddr: 0x44A4, symBinAddr: 0x10000703C, symSize: 0x90 }
  - { offsetInCU: 0x18B95, offset: 0x2100D, size: 0x8, addend: 0x0, symName: __ZNSt3__16vectorI4DateNS_9allocatorIS1_EEE21__push_back_slow_pathIRKS1_EEvOT_, symObjAddr: 0x4534, symBinAddr: 0x1000070CC, symSize: 0xD8 }
  - { offsetInCU: 0x18BF2, offset: 0x2106A, size: 0x8, addend: 0x0, symName: __ZNSt3__116allocator_traitsINS_9allocatorI4DateEEE9constructB8ue170006IS2_JRKS2_EvEEvRS3_PT_DpOT0_, symObjAddr: 0x460C, symBinAddr: 0x1000071A4, symSize: 0x34 }
  - { offsetInCU: 0x18C4A, offset: 0x210C2, size: 0x8, addend: 0x0, symName: __ZNSt3__19allocatorI4DateE9constructB8ue170006IS1_JRKS1_EEEvPT_DpOT0_, symObjAddr: 0x4640, symBinAddr: 0x1000071D8, symSize: 0x30 }
  - { offsetInCU: 0x18C9E, offset: 0x21116, size: 0x8, addend: 0x0, symName: __ZNKSt3__16vectorI4DateNS_9allocatorIS1_EEE11__recommendB8ue170006Em, symObjAddr: 0x4670, symBinAddr: 0x100007208, symSize: 0xB4 }
  - { offsetInCU: 0x18CF2, offset: 0x2116A, size: 0x8, addend: 0x0, symName: __ZNSt3__114__split_bufferI4DateRNS_9allocatorIS1_EEEC1EmmS4_, symObjAddr: 0x4724, symBinAddr: 0x1000072BC, symSize: 0x44 }
  - { offsetInCU: 0x18D47, offset: 0x211BF, size: 0x8, addend: 0x0, symName: __ZNSt3__114__split_bufferI4DateRNS_9allocatorIS1_EEED1Ev, symObjAddr: 0x4878, symBinAddr: 0x100007410, symSize: 0x2C }
  - { offsetInCU: 0x18D72, offset: 0x211EA, size: 0x8, addend: 0x0, symName: __ZNSt3__114__split_bufferI4DateRNS_9allocatorIS1_EEEC2EmmS4_, symObjAddr: 0x4924, symBinAddr: 0x1000074BC, symSize: 0xE0 }
  - { offsetInCU: 0x18DE5, offset: 0x2125D, size: 0x8, addend: 0x0, symName: __ZNSt3__117__compressed_pairIP4DateRNS_9allocatorIS1_EEEC1B8ue170006IDnS5_EEOT_OT0_, symObjAddr: 0x4A04, symBinAddr: 0x10000759C, symSize: 0x3C }
  - { offsetInCU: 0x18E3B, offset: 0x212B3, size: 0x8, addend: 0x0, symName: __ZNSt3__114__split_bufferI4DateRNS_9allocatorIS1_EEE7__allocB8ue170006Ev, symObjAddr: 0x4A40, symBinAddr: 0x1000075D8, symSize: 0x28 }
  - { offsetInCU: 0x18E5F, offset: 0x212D7, size: 0x8, addend: 0x0, symName: __ZNSt3__114__split_bufferI4DateRNS_9allocatorIS1_EEE9__end_capB8ue170006Ev, symObjAddr: 0x4A68, symBinAddr: 0x100007600, symSize: 0x28 }
  - { offsetInCU: 0x18E83, offset: 0x212FB, size: 0x8, addend: 0x0, symName: __ZNSt3__117__compressed_pairIP4DateRNS_9allocatorIS1_EEEC2B8ue170006IDnS5_EEOT_OT0_, symObjAddr: 0x4A90, symBinAddr: 0x100007628, symSize: 0x48 }
  - { offsetInCU: 0x18ED9, offset: 0x21351, size: 0x8, addend: 0x0, symName: __ZNSt3__122__compressed_pair_elemIRNS_9allocatorI4DateEELi1ELb0EEC2B8ue170006IS4_vEEOT_, symObjAddr: 0x4AD8, symBinAddr: 0x100007670, symSize: 0x20 }
  - { offsetInCU: 0x18F1A, offset: 0x21392, size: 0x8, addend: 0x0, symName: __ZNSt3__117__compressed_pairIP4DateRNS_9allocatorIS1_EEE6secondB8ue170006Ev, symObjAddr: 0x4AF8, symBinAddr: 0x100007690, symSize: 0x28 }
  - { offsetInCU: 0x18F3E, offset: 0x213B6, size: 0x8, addend: 0x0, symName: __ZNSt3__122__compressed_pair_elemIRNS_9allocatorI4DateEELi1ELb0EE5__getB8ue170006Ev, symObjAddr: 0x4B20, symBinAddr: 0x1000076B8, symSize: 0x18 }
  - { offsetInCU: 0x18F62, offset: 0x213DA, size: 0x8, addend: 0x0, symName: __ZNSt3__117__compressed_pairIP4DateRNS_9allocatorIS1_EEE5firstB8ue170006Ev, symObjAddr: 0x4B38, symBinAddr: 0x1000076D0, symSize: 0x24 }
  - { offsetInCU: 0x18F86, offset: 0x213FE, size: 0x8, addend: 0x0, symName: __ZNSt3__116reverse_iteratorIP4DateEC1B8ue170006ES2_, symObjAddr: 0x4BD4, symBinAddr: 0x10000776C, symSize: 0x34 }
  - { offsetInCU: 0x18FBC, offset: 0x21434, size: 0x8, addend: 0x0, symName: __ZNKSt3__116reverse_iteratorIP4DateE4baseB8ue170006Ev, symObjAddr: 0x4C08, symBinAddr: 0x1000077A0, symSize: 0x18 }
  - { offsetInCU: 0x19003, offset: 0x2147B, size: 0x8, addend: 0x0, symName: __ZNKSt3__111__move_loopINS_17_ClassicAlgPolicyEEclB8ue170006INS_16reverse_iteratorIP4DateEES7_S7_EENS_4pairIT_T1_EES9_T0_SA_, symObjAddr: 0x4F4C, symBinAddr: 0x100007AE4, symSize: 0xA8 }
  - { offsetInCU: 0x19071, offset: 0x214E9, size: 0x8, addend: 0x0, symName: __ZNSt3__18_IterOpsINS_17_ClassicAlgPolicyEE11__iter_moveB8ue170006IRNS_16reverse_iteratorIP4DateEEEENS_9enable_ifIXsr12is_referenceIDTdeclsr3stdE7declvalIRT_EEEEE5valueEDTclsr3stdE4movedeclsr3stdE7declvalISB_EEEEE4typeEOSA_, symObjAddr: 0x5188, symBinAddr: 0x100007D20, symSize: 0x28 }
  - { offsetInCU: 0x1909C, offset: 0x21514, size: 0x8, addend: 0x0, symName: __ZNKSt3__116reverse_iteratorIP4DateEdeB8ue170006Ev, symObjAddr: 0x51B0, symBinAddr: 0x100007D48, symSize: 0x28 }
  - { offsetInCU: 0x190CE, offset: 0x21546, size: 0x8, addend: 0x0, symName: __ZNSt3__116reverse_iteratorIP4DateEppB8ue170006Ev, symObjAddr: 0x51D8, symBinAddr: 0x100007D70, symSize: 0x20 }
  - { offsetInCU: 0x190F2, offset: 0x2156A, size: 0x8, addend: 0x0, symName: __ZNSt3__18_IterOpsINS_17_ClassicAlgPolicyEE25__validate_iter_referenceB8ue170006IRNS_16reverse_iteratorIP4DateEEEEvv, symObjAddr: 0x51F8, symBinAddr: 0x100007D90, symSize: 0x4 }
  - { offsetInCU: 0x1910F, offset: 0x21587, size: 0x8, addend: 0x0, symName: __ZNSt3__118__unwrap_iter_implINS_16reverse_iteratorIP4DateEELb0EE8__unwrapB8ue170006ES4_, symObjAddr: 0x51FC, symBinAddr: 0x100007D94, symSize: 0x24 }
  - { offsetInCU: 0x19136, offset: 0x215AE, size: 0x8, addend: 0x0, symName: __ZNSt3__14pairINS_16reverse_iteratorIP4DateEES4_EC1B8ue170006IS4_S4_LPv0EEEOT_OT0_, symObjAddr: 0x5220, symBinAddr: 0x100007DB8, symSize: 0x3C }
  - { offsetInCU: 0x19193, offset: 0x2160B, size: 0x8, addend: 0x0, symName: __ZNSt3__14pairINS_16reverse_iteratorIP4DateEES4_EC2B8ue170006IS4_S4_LPv0EEEOT_OT0_, symObjAddr: 0x525C, symBinAddr: 0x100007DF4, symSize: 0x34 }
  - { offsetInCU: 0x191F0, offset: 0x21668, size: 0x8, addend: 0x0, symName: __ZNSt3__118__unwrap_iter_implINS_16reverse_iteratorIP4DateEELb0EE8__rewrapB8ue170006ES4_S4_, symObjAddr: 0x5290, symBinAddr: 0x100007E28, symSize: 0x2C }
  - { offsetInCU: 0x1921C, offset: 0x21694, size: 0x8, addend: 0x0, symName: __ZNSt3__116reverse_iteratorIP4DateEC2B8ue170006ES2_, symObjAddr: 0x52BC, symBinAddr: 0x100007E54, symSize: 0x28 }
  - { offsetInCU: 0x19252, offset: 0x216CA, size: 0x8, addend: 0x0, symName: __ZNSt3__114__split_bufferI4DateRNS_9allocatorIS1_EEED2Ev, symObjAddr: 0x52E4, symBinAddr: 0x100007E7C, symSize: 0x8C }
  - { offsetInCU: 0x1927D, offset: 0x216F5, size: 0x8, addend: 0x0, symName: __ZNSt3__114__split_bufferI4DateRNS_9allocatorIS1_EEE5clearB8ue170006Ev, symObjAddr: 0x5370, symBinAddr: 0x100007F08, symSize: 0x28 }
  - { offsetInCU: 0x192A1, offset: 0x21719, size: 0x8, addend: 0x0, symName: __ZNKSt3__114__split_bufferI4DateRNS_9allocatorIS1_EEE8capacityB8ue170006Ev, symObjAddr: 0x5398, symBinAddr: 0x100007F30, symSize: 0x40 }
  - { offsetInCU: 0x192C5, offset: 0x2173D, size: 0x8, addend: 0x0, symName: __ZNSt3__114__split_bufferI4DateRNS_9allocatorIS1_EEE17__destruct_at_endB8ue170006EPS1_, symObjAddr: 0x53D8, symBinAddr: 0x100007F70, symSize: 0x2C }
  - { offsetInCU: 0x192F6, offset: 0x2176E, size: 0x8, addend: 0x0, symName: __ZNSt3__114__split_bufferI4DateRNS_9allocatorIS1_EEE17__destruct_at_endB8ue170006EPS1_NS_17integral_constantIbLb0EEE, symObjAddr: 0x5404, symBinAddr: 0x100007F9C, symSize: 0x80 }
  - { offsetInCU: 0x19335, offset: 0x217AD, size: 0x8, addend: 0x0, symName: __ZNKSt3__114__split_bufferI4DateRNS_9allocatorIS1_EEE9__end_capB8ue170006Ev, symObjAddr: 0x5484, symBinAddr: 0x10000801C, symSize: 0x28 }
  - { offsetInCU: 0x19359, offset: 0x217D1, size: 0x8, addend: 0x0, symName: __ZNKSt3__117__compressed_pairIP4DateRNS_9allocatorIS1_EEE5firstB8ue170006Ev, symObjAddr: 0x54AC, symBinAddr: 0x100008044, symSize: 0x24 }
  - { offsetInCU: 0x1937D, offset: 0x217F5, size: 0x8, addend: 0x0, symName: __ZNSt3__16vectorIdNS_9allocatorIdEEE22__construct_one_at_endB8ue170006IJRKdEEEvDpOT_, symObjAddr: 0x54D0, symBinAddr: 0x100008068, symSize: 0x90 }
  - { offsetInCU: 0x193CA, offset: 0x21842, size: 0x8, addend: 0x0, symName: __ZNSt3__16vectorIdNS_9allocatorIdEEE21__push_back_slow_pathIRKdEEvOT_, symObjAddr: 0x5560, symBinAddr: 0x1000080F8, symSize: 0xD8 }
  - { offsetInCU: 0x19427, offset: 0x2189F, size: 0x8, addend: 0x0, symName: __ZNSt3__116allocator_traitsINS_9allocatorIdEEE9constructB8ue170006IdJRKdEvEEvRS2_PT_DpOT0_, symObjAddr: 0x5638, symBinAddr: 0x1000081D0, symSize: 0x34 }
  - { offsetInCU: 0x1947F, offset: 0x218F7, size: 0x8, addend: 0x0, symName: __ZNSt3__19allocatorIdE9constructB8ue170006IdJRKdEEEvPT_DpOT0_, symObjAddr: 0x566C, symBinAddr: 0x100008204, symSize: 0x28 }
  - { offsetInCU: 0x194D3, offset: 0x2194B, size: 0x8, addend: 0x0, symName: __ZNKSt3__16vectorIdNS_9allocatorIdEEE11__recommendB8ue170006Em, symObjAddr: 0x5694, symBinAddr: 0x10000822C, symSize: 0xB4 }
  - { offsetInCU: 0x19527, offset: 0x2199F, size: 0x8, addend: 0x0, symName: __ZNSt3__114__split_bufferIdRNS_9allocatorIdEEEC1EmmS3_, symObjAddr: 0x5748, symBinAddr: 0x1000082E0, symSize: 0x44 }
  - { offsetInCU: 0x1957C, offset: 0x219F4, size: 0x8, addend: 0x0, symName: __ZNSt3__114__split_bufferIdRNS_9allocatorIdEEED1Ev, symObjAddr: 0x589C, symBinAddr: 0x100008434, symSize: 0x2C }
  - { offsetInCU: 0x195A7, offset: 0x21A1F, size: 0x8, addend: 0x0, symName: __ZNSt3__114__split_bufferIdRNS_9allocatorIdEEEC2EmmS3_, symObjAddr: 0x58C8, symBinAddr: 0x100008460, symSize: 0xD4 }
  - { offsetInCU: 0x1961A, offset: 0x21A92, size: 0x8, addend: 0x0, symName: __ZNSt3__117__compressed_pairIPdRNS_9allocatorIdEEEC1B8ue170006IDnS4_EEOT_OT0_, symObjAddr: 0x599C, symBinAddr: 0x100008534, symSize: 0x3C }
  - { offsetInCU: 0x19670, offset: 0x21AE8, size: 0x8, addend: 0x0, symName: __ZNSt3__114__split_bufferIdRNS_9allocatorIdEEE7__allocB8ue170006Ev, symObjAddr: 0x59D8, symBinAddr: 0x100008570, symSize: 0x28 }
  - { offsetInCU: 0x19694, offset: 0x21B0C, size: 0x8, addend: 0x0, symName: __ZNSt3__114__split_bufferIdRNS_9allocatorIdEEE9__end_capB8ue170006Ev, symObjAddr: 0x5A00, symBinAddr: 0x100008598, symSize: 0x28 }
  - { offsetInCU: 0x196B8, offset: 0x21B30, size: 0x8, addend: 0x0, symName: __ZNSt3__117__compressed_pairIPdRNS_9allocatorIdEEEC2B8ue170006IDnS4_EEOT_OT0_, symObjAddr: 0x5A28, symBinAddr: 0x1000085C0, symSize: 0x48 }
  - { offsetInCU: 0x1970E, offset: 0x21B86, size: 0x8, addend: 0x0, symName: __ZNSt3__122__compressed_pair_elemIRNS_9allocatorIdEELi1ELb0EEC2B8ue170006IS3_vEEOT_, symObjAddr: 0x5A70, symBinAddr: 0x100008608, symSize: 0x20 }
  - { offsetInCU: 0x1974F, offset: 0x21BC7, size: 0x8, addend: 0x0, symName: __ZNSt3__117__compressed_pairIPdRNS_9allocatorIdEEE6secondB8ue170006Ev, symObjAddr: 0x5A90, symBinAddr: 0x100008628, symSize: 0x28 }
  - { offsetInCU: 0x19773, offset: 0x21BEB, size: 0x8, addend: 0x0, symName: __ZNSt3__122__compressed_pair_elemIRNS_9allocatorIdEELi1ELb0EE5__getB8ue170006Ev, symObjAddr: 0x5AB8, symBinAddr: 0x100008650, symSize: 0x18 }
  - { offsetInCU: 0x19797, offset: 0x21C0F, size: 0x8, addend: 0x0, symName: __ZNSt3__117__compressed_pairIPdRNS_9allocatorIdEEE5firstB8ue170006Ev, symObjAddr: 0x5AD0, symBinAddr: 0x100008668, symSize: 0x24 }
  - { offsetInCU: 0x197BB, offset: 0x21C33, size: 0x8, addend: 0x0, symName: __ZNSt3__116reverse_iteratorIPdEC1B8ue170006ES1_, symObjAddr: 0x5B6C, symBinAddr: 0x100008704, symSize: 0x34 }
  - { offsetInCU: 0x197F1, offset: 0x21C69, size: 0x8, addend: 0x0, symName: __ZNKSt3__116reverse_iteratorIPdE4baseB8ue170006Ev, symObjAddr: 0x5BA0, symBinAddr: 0x100008738, symSize: 0x18 }
  - { offsetInCU: 0x1982E, offset: 0x21CA6, size: 0x8, addend: 0x0, symName: __ZNKSt3__111__move_loopINS_17_ClassicAlgPolicyEEclB8ue170006INS_16reverse_iteratorIPdEES6_S6_EENS_4pairIT_T1_EES8_T0_S9_, symObjAddr: 0x5EE4, symBinAddr: 0x100008A7C, symSize: 0xA0 }
  - { offsetInCU: 0x1989C, offset: 0x21D14, size: 0x8, addend: 0x0, symName: __ZNSt3__18_IterOpsINS_17_ClassicAlgPolicyEE11__iter_moveB8ue170006IRNS_16reverse_iteratorIPdEEEENS_9enable_ifIXsr12is_referenceIDTdeclsr3stdE7declvalIRT_EEEEE5valueEDTclsr3stdE4movedeclsr3stdE7declvalISA_EEEEE4typeEOS9_, symObjAddr: 0x6118, symBinAddr: 0x100008CB0, symSize: 0x28 }
  - { offsetInCU: 0x198C7, offset: 0x21D3F, size: 0x8, addend: 0x0, symName: __ZNKSt3__116reverse_iteratorIPdEdeB8ue170006Ev, symObjAddr: 0x6140, symBinAddr: 0x100008CD8, symSize: 0x28 }
  - { offsetInCU: 0x198F9, offset: 0x21D71, size: 0x8, addend: 0x0, symName: __ZNSt3__116reverse_iteratorIPdEppB8ue170006Ev, symObjAddr: 0x6168, symBinAddr: 0x100008D00, symSize: 0x20 }
  - { offsetInCU: 0x1991D, offset: 0x21D95, size: 0x8, addend: 0x0, symName: __ZNSt3__18_IterOpsINS_17_ClassicAlgPolicyEE25__validate_iter_referenceB8ue170006IRNS_16reverse_iteratorIPdEEEEvv, symObjAddr: 0x6188, symBinAddr: 0x100008D20, symSize: 0x4 }
  - { offsetInCU: 0x1993A, offset: 0x21DB2, size: 0x8, addend: 0x0, symName: __ZNSt3__118__unwrap_iter_implINS_16reverse_iteratorIPdEELb0EE8__unwrapB8ue170006ES3_, symObjAddr: 0x618C, symBinAddr: 0x100008D24, symSize: 0x24 }
  - { offsetInCU: 0x19961, offset: 0x21DD9, size: 0x8, addend: 0x0, symName: __ZNSt3__14pairINS_16reverse_iteratorIPdEES3_EC1B8ue170006IS3_S3_LPv0EEEOT_OT0_, symObjAddr: 0x61B0, symBinAddr: 0x100008D48, symSize: 0x3C }
  - { offsetInCU: 0x199BE, offset: 0x21E36, size: 0x8, addend: 0x0, symName: __ZNSt3__14pairINS_16reverse_iteratorIPdEES3_EC2B8ue170006IS3_S3_LPv0EEEOT_OT0_, symObjAddr: 0x61EC, symBinAddr: 0x100008D84, symSize: 0x34 }
  - { offsetInCU: 0x19A1B, offset: 0x21E93, size: 0x8, addend: 0x0, symName: __ZNSt3__118__unwrap_iter_implINS_16reverse_iteratorIPdEELb0EE8__rewrapB8ue170006ES3_S3_, symObjAddr: 0x6220, symBinAddr: 0x100008DB8, symSize: 0x2C }
  - { offsetInCU: 0x19A47, offset: 0x21EBF, size: 0x8, addend: 0x0, symName: __ZNSt3__116reverse_iteratorIPdEC2B8ue170006ES1_, symObjAddr: 0x624C, symBinAddr: 0x100008DE4, symSize: 0x28 }
  - { offsetInCU: 0x19A7D, offset: 0x21EF5, size: 0x8, addend: 0x0, symName: __ZNSt3__114__split_bufferIdRNS_9allocatorIdEEED2Ev, symObjAddr: 0x6274, symBinAddr: 0x100008E0C, symSize: 0x8C }
  - { offsetInCU: 0x19AA8, offset: 0x21F20, size: 0x8, addend: 0x0, symName: __ZNSt3__114__split_bufferIdRNS_9allocatorIdEEE5clearB8ue170006Ev, symObjAddr: 0x6300, symBinAddr: 0x100008E98, symSize: 0x28 }
  - { offsetInCU: 0x19ACC, offset: 0x21F44, size: 0x8, addend: 0x0, symName: __ZNKSt3__114__split_bufferIdRNS_9allocatorIdEEE8capacityB8ue170006Ev, symObjAddr: 0x6328, symBinAddr: 0x100008EC0, symSize: 0x40 }
  - { offsetInCU: 0x19AF0, offset: 0x21F68, size: 0x8, addend: 0x0, symName: __ZNSt3__114__split_bufferIdRNS_9allocatorIdEEE17__destruct_at_endB8ue170006EPd, symObjAddr: 0x6368, symBinAddr: 0x100008F00, symSize: 0x2C }
  - { offsetInCU: 0x19B21, offset: 0x21F99, size: 0x8, addend: 0x0, symName: __ZNSt3__114__split_bufferIdRNS_9allocatorIdEEE17__destruct_at_endB8ue170006EPdNS_17integral_constantIbLb0EEE, symObjAddr: 0x6394, symBinAddr: 0x100008F2C, symSize: 0x80 }
  - { offsetInCU: 0x19B60, offset: 0x21FD8, size: 0x8, addend: 0x0, symName: __ZNKSt3__114__split_bufferIdRNS_9allocatorIdEEE9__end_capB8ue170006Ev, symObjAddr: 0x6414, symBinAddr: 0x100008FAC, symSize: 0x28 }
  - { offsetInCU: 0x19B84, offset: 0x21FFC, size: 0x8, addend: 0x0, symName: __ZNKSt3__117__compressed_pairIPdRNS_9allocatorIdEEE5firstB8ue170006Ev, symObjAddr: 0x643C, symBinAddr: 0x100008FD4, symSize: 0x24 }
  - { offsetInCU: 0x19BA7, offset: 0x2201F, size: 0x8, addend: 0x0, symName: __ZNKSt3__112__hash_tableINS_17__hash_value_typeINS_12basic_stringIcNS_11char_traitsIcEENS_9allocatorIcEEEE9RateCurveEENS_22__unordered_map_hasherIS7_S9_NS_4hashIS7_EENS_8equal_toIS7_EELb1EEENS_21__unordered_map_equalIS7_S9_SE_SC_Lb1EEENS5_IS9_EEE5beginEv, symObjAddr: 0x6460, symBinAddr: 0x100008FF8, symSize: 0x38 }
  - { offsetInCU: 0x19BCE, offset: 0x22046, size: 0x8, addend: 0x0, symName: __ZNSt3__125__hash_map_const_iteratorINS_21__hash_const_iteratorIPNS_11__hash_nodeINS_17__hash_value_typeINS_12basic_stringIcNS_11char_traitsIcEENS_9allocatorIcEEEE9RateCurveEEPvEEEEEC1B8ue170006ESF_, symObjAddr: 0x6498, symBinAddr: 0x100009030, symSize: 0x34 }
  - { offsetInCU: 0x19C05, offset: 0x2207D, size: 0x8, addend: 0x0, symName: __ZNKSt3__117__compressed_pairINS_16__hash_node_baseIPNS_11__hash_nodeINS_17__hash_value_typeINS_12basic_stringIcNS_11char_traitsIcEENS_9allocatorIcEEEE9RateCurveEEPvEEEENS7_ISD_EEE5firstB8ue170006Ev, symObjAddr: 0x64CC, symBinAddr: 0x100009064, symSize: 0x24 }
  - { offsetInCU: 0x19C29, offset: 0x220A1, size: 0x8, addend: 0x0, symName: __ZNSt3__121__hash_const_iteratorIPNS_11__hash_nodeINS_17__hash_value_typeINS_12basic_stringIcNS_11char_traitsIcEENS_9allocatorIcEEEE9RateCurveEEPvEEEC1B8ue170006EPNS_16__hash_node_baseISD_EE, symObjAddr: 0x64F0, symBinAddr: 0x100009088, symSize: 0x34 }
  - { offsetInCU: 0x19C60, offset: 0x220D8, size: 0x8, addend: 0x0, symName: __ZNKSt3__122__compressed_pair_elemINS_16__hash_node_baseIPNS_11__hash_nodeINS_17__hash_value_typeINS_12basic_stringIcNS_11char_traitsIcEENS_9allocatorIcEEEE9RateCurveEEPvEEEELi0ELb0EE5__getB8ue170006Ev, symObjAddr: 0x6524, symBinAddr: 0x1000090BC, symSize: 0x14 }
  - { offsetInCU: 0x19C84, offset: 0x220FC, size: 0x8, addend: 0x0, symName: __ZNSt3__121__hash_const_iteratorIPNS_11__hash_nodeINS_17__hash_value_typeINS_12basic_stringIcNS_11char_traitsIcEENS_9allocatorIcEEEE9RateCurveEEPvEEEC2B8ue170006EPNS_16__hash_node_baseISD_EE, symObjAddr: 0x6538, symBinAddr: 0x1000090D0, symSize: 0x20 }
  - { offsetInCU: 0x19CBB, offset: 0x22133, size: 0x8, addend: 0x0, symName: __ZNSt3__125__hash_map_const_iteratorINS_21__hash_const_iteratorIPNS_11__hash_nodeINS_17__hash_value_typeINS_12basic_stringIcNS_11char_traitsIcEENS_9allocatorIcEEEE9RateCurveEEPvEEEEEC2B8ue170006ESF_, symObjAddr: 0x6558, symBinAddr: 0x1000090F0, symSize: 0x20 }
  - { offsetInCU: 0x19CF1, offset: 0x22169, size: 0x8, addend: 0x0, symName: __ZNKSt3__112__hash_tableINS_17__hash_value_typeINS_12basic_stringIcNS_11char_traitsIcEENS_9allocatorIcEEEE9RateCurveEENS_22__unordered_map_hasherIS7_S9_NS_4hashIS7_EENS_8equal_toIS7_EELb1EEENS_21__unordered_map_equalIS7_S9_SE_SC_Lb1EEENS5_IS9_EEE3endEv, symObjAddr: 0x6578, symBinAddr: 0x100009110, symSize: 0x2C }
  - { offsetInCU: 0x19D18, offset: 0x22190, size: 0x8, addend: 0x0, symName: __ZNSt3__121__hash_const_iteratorIPNS_11__hash_nodeINS_17__hash_value_typeINS_12basic_stringIcNS_11char_traitsIcEENS_9allocatorIcEEEE9RateCurveEEPvEEEppB8ue170006Ev, symObjAddr: 0x6608, symBinAddr: 0x1000091A0, symSize: 0x20 }
  - { offsetInCU: 0x19D3C, offset: 0x221B4, size: 0x8, addend: 0x0, symName: __ZNKSt3__121__hash_const_iteratorIPNS_11__hash_nodeINS_17__hash_value_typeINS_12basic_stringIcNS_11char_traitsIcEENS_9allocatorIcEEEE9RateCurveEEPvEEEptB8ue170006Ev, symObjAddr: 0x6628, symBinAddr: 0x1000091C0, symSize: 0x30 }
  - { offsetInCU: 0x19D60, offset: 0x221D8, size: 0x8, addend: 0x0, symName: __ZNKSt3__117__hash_value_typeINS_12basic_stringIcNS_11char_traitsIcEENS_9allocatorIcEEEE9RateCurveE11__get_valueB8ue170006Ev, symObjAddr: 0x6658, symBinAddr: 0x1000091F0, symSize: 0x24 }
  - { offsetInCU: 0x19D84, offset: 0x221FC, size: 0x8, addend: 0x0, symName: __ZNSt3__114pointer_traitsIPKNS_17__hash_value_typeINS_12basic_stringIcNS_11char_traitsIcEENS_9allocatorIcEEEE9RateCurveEEE10pointer_toB8ue170006ERSA_, symObjAddr: 0x667C, symBinAddr: 0x100009214, symSize: 0x14 }
  - { offsetInCU: 0x19DA6, offset: 0x2221E, size: 0x8, addend: 0x0, symName: __ZNSt3__116__hash_node_baseIPNS_11__hash_nodeINS_17__hash_value_typeINS_12basic_stringIcNS_11char_traitsIcEENS_9allocatorIcEEEE9RateCurveEEPvEEE8__upcastB8ue170006Ev, symObjAddr: 0x6690, symBinAddr: 0x100009228, symSize: 0x24 }
  - { offsetInCU: 0x19DCA, offset: 0x22242, size: 0x8, addend: 0x0, symName: __ZNSt3__114pointer_traitsIPNS_16__hash_node_baseIPNS_11__hash_nodeINS_17__hash_value_typeINS_12basic_stringIcNS_11char_traitsIcEENS_9allocatorIcEEEE9RateCurveEEPvEEEEE10pointer_toB8ue170006ERSF_, symObjAddr: 0x66B4, symBinAddr: 0x10000924C, symSize: 0x14 }
  - { offsetInCU: 0x19DEB, offset: 0x22263, size: 0x8, addend: 0x0, symName: __ZNKSt3__112__hash_tableINS_17__hash_value_typeINS_12basic_stringIcNS_11char_traitsIcEENS_9allocatorIcEEEE8VolCurveEENS_22__unordered_map_hasherIS7_S9_NS_4hashIS7_EENS_8equal_toIS7_EELb1EEENS_21__unordered_map_equalIS7_S9_SE_SC_Lb1EEENS5_IS9_EEE5beginEv, symObjAddr: 0x6700, symBinAddr: 0x100009298, symSize: 0x38 }
  - { offsetInCU: 0x19E12, offset: 0x2228A, size: 0x8, addend: 0x0, symName: __ZNSt3__125__hash_map_const_iteratorINS_21__hash_const_iteratorIPNS_11__hash_nodeINS_17__hash_value_typeINS_12basic_stringIcNS_11char_traitsIcEENS_9allocatorIcEEEE8VolCurveEEPvEEEEEC1B8ue170006ESF_, symObjAddr: 0x6738, symBinAddr: 0x1000092D0, symSize: 0x34 }
  - { offsetInCU: 0x19E49, offset: 0x222C1, size: 0x8, addend: 0x0, symName: __ZNKSt3__117__compressed_pairINS_16__hash_node_baseIPNS_11__hash_nodeINS_17__hash_value_typeINS_12basic_stringIcNS_11char_traitsIcEENS_9allocatorIcEEEE8VolCurveEEPvEEEENS7_ISD_EEE5firstB8ue170006Ev, symObjAddr: 0x676C, symBinAddr: 0x100009304, symSize: 0x24 }
  - { offsetInCU: 0x19E6D, offset: 0x222E5, size: 0x8, addend: 0x0, symName: __ZNSt3__121__hash_const_iteratorIPNS_11__hash_nodeINS_17__hash_value_typeINS_12basic_stringIcNS_11char_traitsIcEENS_9allocatorIcEEEE8VolCurveEEPvEEEC1B8ue170006EPNS_16__hash_node_baseISD_EE, symObjAddr: 0x6790, symBinAddr: 0x100009328, symSize: 0x34 }
  - { offsetInCU: 0x19EA4, offset: 0x2231C, size: 0x8, addend: 0x0, symName: __ZNKSt3__122__compressed_pair_elemINS_16__hash_node_baseIPNS_11__hash_nodeINS_17__hash_value_typeINS_12basic_stringIcNS_11char_traitsIcEENS_9allocatorIcEEEE8VolCurveEEPvEEEELi0ELb0EE5__getB8ue170006Ev, symObjAddr: 0x67C4, symBinAddr: 0x10000935C, symSize: 0x14 }
  - { offsetInCU: 0x19EC8, offset: 0x22340, size: 0x8, addend: 0x0, symName: __ZNSt3__121__hash_const_iteratorIPNS_11__hash_nodeINS_17__hash_value_typeINS_12basic_stringIcNS_11char_traitsIcEENS_9allocatorIcEEEE8VolCurveEEPvEEEC2B8ue170006EPNS_16__hash_node_baseISD_EE, symObjAddr: 0x67D8, symBinAddr: 0x100009370, symSize: 0x20 }
  - { offsetInCU: 0x19EFF, offset: 0x22377, size: 0x8, addend: 0x0, symName: __ZNSt3__125__hash_map_const_iteratorINS_21__hash_const_iteratorIPNS_11__hash_nodeINS_17__hash_value_typeINS_12basic_stringIcNS_11char_traitsIcEENS_9allocatorIcEEEE8VolCurveEEPvEEEEEC2B8ue170006ESF_, symObjAddr: 0x67F8, symBinAddr: 0x100009390, symSize: 0x20 }
  - { offsetInCU: 0x19F35, offset: 0x223AD, size: 0x8, addend: 0x0, symName: __ZNKSt3__112__hash_tableINS_17__hash_value_typeINS_12basic_stringIcNS_11char_traitsIcEENS_9allocatorIcEEEE8VolCurveEENS_22__unordered_map_hasherIS7_S9_NS_4hashIS7_EENS_8equal_toIS7_EELb1EEENS_21__unordered_map_equalIS7_S9_SE_SC_Lb1EEENS5_IS9_EEE3endEv, symObjAddr: 0x6818, symBinAddr: 0x1000093B0, symSize: 0x2C }
  - { offsetInCU: 0x19F5C, offset: 0x223D4, size: 0x8, addend: 0x0, symName: __ZNSt3__121__hash_const_iteratorIPNS_11__hash_nodeINS_17__hash_value_typeINS_12basic_stringIcNS_11char_traitsIcEENS_9allocatorIcEEEE8VolCurveEEPvEEEppB8ue170006Ev, symObjAddr: 0x68A8, symBinAddr: 0x100009440, symSize: 0x20 }
  - { offsetInCU: 0x19F80, offset: 0x223F8, size: 0x8, addend: 0x0, symName: __ZNKSt3__121__hash_const_iteratorIPNS_11__hash_nodeINS_17__hash_value_typeINS_12basic_stringIcNS_11char_traitsIcEENS_9allocatorIcEEEE8VolCurveEEPvEEEptB8ue170006Ev, symObjAddr: 0x68C8, symBinAddr: 0x100009460, symSize: 0x30 }
  - { offsetInCU: 0x19FA4, offset: 0x2241C, size: 0x8, addend: 0x0, symName: __ZNKSt3__117__hash_value_typeINS_12basic_stringIcNS_11char_traitsIcEENS_9allocatorIcEEEE8VolCurveE11__get_valueB8ue170006Ev, symObjAddr: 0x68F8, symBinAddr: 0x100009490, symSize: 0x24 }
  - { offsetInCU: 0x19FC8, offset: 0x22440, size: 0x8, addend: 0x0, symName: __ZNSt3__114pointer_traitsIPKNS_17__hash_value_typeINS_12basic_stringIcNS_11char_traitsIcEENS_9allocatorIcEEEE8VolCurveEEE10pointer_toB8ue170006ERSA_, symObjAddr: 0x691C, symBinAddr: 0x1000094B4, symSize: 0x14 }
  - { offsetInCU: 0x19FEA, offset: 0x22462, size: 0x8, addend: 0x0, symName: __ZNSt3__116__hash_node_baseIPNS_11__hash_nodeINS_17__hash_value_typeINS_12basic_stringIcNS_11char_traitsIcEENS_9allocatorIcEEEE8VolCurveEEPvEEE8__upcastB8ue170006Ev, symObjAddr: 0x6930, symBinAddr: 0x1000094C8, symSize: 0x24 }
  - { offsetInCU: 0x1A00E, offset: 0x22486, size: 0x8, addend: 0x0, symName: __ZNSt3__114pointer_traitsIPNS_16__hash_node_baseIPNS_11__hash_nodeINS_17__hash_value_typeINS_12basic_stringIcNS_11char_traitsIcEENS_9allocatorIcEEEE8VolCurveEEPvEEEEE10pointer_toB8ue170006ERSF_, symObjAddr: 0x6954, symBinAddr: 0x1000094EC, symSize: 0x14 }
  - { offsetInCU: 0x1A030, offset: 0x224A8, size: 0x8, addend: 0x0, symName: __ZNSt3__112__hash_tableINS_17__hash_value_typeINS_12basic_stringIcNS_11char_traitsIcEENS_9allocatorIcEEEE9RateCurveEENS_22__unordered_map_hasherIS7_S9_NS_4hashIS7_EENS_8equal_toIS7_EELb1EEENS_21__unordered_map_equalIS7_S9_SE_SC_Lb1EEENS5_IS9_EEE16__emplace_uniqueB8ue170006IRKS7_RKS8_EENS_9enable_ifIXsr21__can_extract_map_keyIT_S7_NS_4pairISL_S8_EEEE5valueENSR_INS_15__hash_iteratorIPNS_11__hash_nodeIS9_PvEEEEbEEE4typeEOSQ_OT0_, symObjAddr: 0x69A0, symBinAddr: 0x100009538, symSize: 0x48 }
  - { offsetInCU: 0x1A084, offset: 0x224FC, size: 0x8, addend: 0x0, symName: __ZNSt3__14pairINS_19__hash_map_iteratorINS_15__hash_iteratorIPNS_11__hash_nodeINS_17__hash_value_typeINS_12basic_stringIcNS_11char_traitsIcEENS_9allocatorIcEEEE9RateCurveEEPvEEEEEEbEC1B8ue170006ISG_bLSD_0EEEONS0_IT_T0_EE, symObjAddr: 0x69E8, symBinAddr: 0x100009580, symSize: 0x34 }
  - { offsetInCU: 0x1A0D3, offset: 0x2254B, size: 0x8, addend: 0x0, symName: __ZNSt3__112__hash_tableINS_17__hash_value_typeINS_12basic_stringIcNS_11char_traitsIcEENS_9allocatorIcEEEE9RateCurveEENS_22__unordered_map_hasherIS7_S9_NS_4hashIS7_EENS_8equal_toIS7_EELb1EEENS_21__unordered_map_equalIS7_S9_SE_SC_Lb1EEENS5_IS9_EEE25__emplace_unique_key_argsIS7_JRKS7_RKS8_EEENS_4pairINS_15__hash_iteratorIPNS_11__hash_nodeIS9_PvEEEEbEERKT_DpOT0_, symObjAddr: 0x6A1C, symBinAddr: 0x1000095B4, symSize: 0x4E0 }
  - { offsetInCU: 0x1A1C9, offset: 0x22641, size: 0x8, addend: 0x0, symName: __ZNSt3__112__hash_tableINS_17__hash_value_typeINS_12basic_stringIcNS_11char_traitsIcEENS_9allocatorIcEEEE9RateCurveEENS_22__unordered_map_hasherIS7_S9_NS_4hashIS7_EENS_8equal_toIS7_EELb1EEENS_21__unordered_map_equalIS7_S9_SE_SC_Lb1EEENS5_IS9_EEE13hash_functionB8ue170006Ev, symObjAddr: 0x6EFC, symBinAddr: 0x100009A94, symSize: 0x28 }
  - { offsetInCU: 0x1A1ED, offset: 0x22665, size: 0x8, addend: 0x0, symName: __ZNKSt3__122__unordered_map_hasherINS_12basic_stringIcNS_11char_traitsIcEENS_9allocatorIcEEEENS_17__hash_value_typeIS6_9RateCurveEENS_4hashIS6_EENS_8equal_toIS6_EELb1EEclB8ue170006ERKS6_, symObjAddr: 0x6F24, symBinAddr: 0x100009ABC, symSize: 0x2C }
  - { offsetInCU: 0x1A220, offset: 0x22698, size: 0x8, addend: 0x0, symName: __ZNKSt3__112__hash_tableINS_17__hash_value_typeINS_12basic_stringIcNS_11char_traitsIcEENS_9allocatorIcEEEE9RateCurveEENS_22__unordered_map_hasherIS7_S9_NS_4hashIS7_EENS_8equal_toIS7_EELb1EEENS_21__unordered_map_equalIS7_S9_SE_SC_Lb1EEENS5_IS9_EEE12bucket_countB8ue170006Ev, symObjAddr: 0x6F50, symBinAddr: 0x100009AE8, symSize: 0x28 }
  - { offsetInCU: 0x1A244, offset: 0x226BC, size: 0x8, addend: 0x0, symName: __ZNKSt3__110unique_ptrIA_PNS_16__hash_node_baseIPNS_11__hash_nodeINS_17__hash_value_typeINS_12basic_stringIcNS_11char_traitsIcEENS_9allocatorIcEEEE9RateCurveEEPvEEEENS_25__bucket_list_deallocatorINS7_ISG_EEEEEixB8ue170006Em, symObjAddr: 0x7010, symBinAddr: 0x100009BA8, symSize: 0x34 }
  - { offsetInCU: 0x1A277, offset: 0x226EF, size: 0x8, addend: 0x0, symName: __ZNKSt3__116__hash_node_baseIPNS_11__hash_nodeINS_17__hash_value_typeINS_12basic_stringIcNS_11char_traitsIcEENS_9allocatorIcEEEE9RateCurveEEPvEEE6__hashB8ue170006Ev, symObjAddr: 0x7044, symBinAddr: 0x100009BDC, symSize: 0x18 }
  - { offsetInCU: 0x1A29B, offset: 0x22713, size: 0x8, addend: 0x0, symName: __ZNSt3__112__hash_tableINS_17__hash_value_typeINS_12basic_stringIcNS_11char_traitsIcEENS_9allocatorIcEEEE9RateCurveEENS_22__unordered_map_hasherIS7_S9_NS_4hashIS7_EENS_8equal_toIS7_EELb1EEENS_21__unordered_map_equalIS7_S9_SE_SC_Lb1EEENS5_IS9_EEE6key_eqB8ue170006Ev, symObjAddr: 0x705C, symBinAddr: 0x100009BF4, symSize: 0x28 }
  - { offsetInCU: 0x1A2BF, offset: 0x22737, size: 0x8, addend: 0x0, symName: __ZNKSt3__121__unordered_map_equalINS_12basic_stringIcNS_11char_traitsIcEENS_9allocatorIcEEEENS_17__hash_value_typeIS6_9RateCurveEENS_8equal_toIS6_EENS_4hashIS6_EELb1EEclB8ue170006ERKS9_RKS6_, symObjAddr: 0x7084, symBinAddr: 0x100009C1C, symSize: 0x48 }
  - { offsetInCU: 0x1A300, offset: 0x22778, size: 0x8, addend: 0x0, symName: __ZNSt3__112__hash_tableINS_17__hash_value_typeINS_12basic_stringIcNS_11char_traitsIcEENS_9allocatorIcEEEE9RateCurveEENS_22__unordered_map_hasherIS7_S9_NS_4hashIS7_EENS_8equal_toIS7_EELb1EEENS_21__unordered_map_equalIS7_S9_SE_SC_Lb1EEENS5_IS9_EEE21__construct_node_hashIRKS7_JRKS8_EEENS_10unique_ptrINS_11__hash_nodeIS9_PvEENS_22__hash_node_destructorINS5_ISS_EEEEEEmOT_DpOT0_, symObjAddr: 0x70CC, symBinAddr: 0x100009C64, symSize: 0x148 }
  - { offsetInCU: 0x1A388, offset: 0x22800, size: 0x8, addend: 0x0, symName: __ZNSt3__112__hash_tableINS_17__hash_value_typeINS_12basic_stringIcNS_11char_traitsIcEENS_9allocatorIcEEEE9RateCurveEENS_22__unordered_map_hasherIS7_S9_NS_4hashIS7_EENS_8equal_toIS7_EELb1EEENS_21__unordered_map_equalIS7_S9_SE_SC_Lb1EEENS5_IS9_EEE4sizeB8ue170006Ev, symObjAddr: 0x7214, symBinAddr: 0x100009DAC, symSize: 0x28 }
  - { offsetInCU: 0x1A3AC, offset: 0x22824, size: 0x8, addend: 0x0, symName: __ZNSt3__112__hash_tableINS_17__hash_value_typeINS_12basic_stringIcNS_11char_traitsIcEENS_9allocatorIcEEEE9RateCurveEENS_22__unordered_map_hasherIS7_S9_NS_4hashIS7_EENS_8equal_toIS7_EELb1EEENS_21__unordered_map_equalIS7_S9_SE_SC_Lb1EEENS5_IS9_EEE15max_load_factorB8ue170006Ev, symObjAddr: 0x723C, symBinAddr: 0x100009DD4, symSize: 0x28 }
  - { offsetInCU: 0x1A3D0, offset: 0x22848, size: 0x8, addend: 0x0, symName: __ZNSt3__112__hash_tableINS_17__hash_value_typeINS_12basic_stringIcNS_11char_traitsIcEENS_9allocatorIcEEEE9RateCurveEENS_22__unordered_map_hasherIS7_S9_NS_4hashIS7_EENS_8equal_toIS7_EELb1EEENS_21__unordered_map_equalIS7_S9_SE_SC_Lb1EEENS5_IS9_EEE15__rehash_uniqueB8ue170006Em, symObjAddr: 0x7264, symBinAddr: 0x100009DFC, symSize: 0x2C }
  - { offsetInCU: 0x1A402, offset: 0x2287A, size: 0x8, addend: 0x0, symName: __Z4ceilB8ue170006f, symObjAddr: 0x72E0, symBinAddr: 0x100009E78, symSize: 0x18 }
  - { offsetInCU: 0x1A432, offset: 0x228AA, size: 0x8, addend: 0x0, symName: __ZNSt3__117__compressed_pairINS_16__hash_node_baseIPNS_11__hash_nodeINS_17__hash_value_typeINS_12basic_stringIcNS_11char_traitsIcEENS_9allocatorIcEEEE9RateCurveEEPvEEEENS7_ISD_EEE5firstB8ue170006Ev, symObjAddr: 0x72F8, symBinAddr: 0x100009E90, symSize: 0x24 }
  - { offsetInCU: 0x1A456, offset: 0x228CE, size: 0x8, addend: 0x0, symName: __ZNSt3__116__hash_node_baseIPNS_11__hash_nodeINS_17__hash_value_typeINS_12basic_stringIcNS_11char_traitsIcEENS_9allocatorIcEEEE9RateCurveEEPvEEE5__ptrB8ue170006Ev, symObjAddr: 0x731C, symBinAddr: 0x100009EB4, symSize: 0x24 }
  - { offsetInCU: 0x1A47A, offset: 0x228F2, size: 0x8, addend: 0x0, symName: __ZNKSt3__110unique_ptrINS_11__hash_nodeINS_17__hash_value_typeINS_12basic_stringIcNS_11char_traitsIcEENS_9allocatorIcEEEE9RateCurveEEPvEENS_22__hash_node_destructorINS6_ISC_EEEEEptB8ue170006Ev, symObjAddr: 0x7340, symBinAddr: 0x100009ED8, symSize: 0x28 }
  - { offsetInCU: 0x1A49E, offset: 0x22916, size: 0x8, addend: 0x0, symName: __ZNKSt3__110unique_ptrINS_11__hash_nodeINS_17__hash_value_typeINS_12basic_stringIcNS_11char_traitsIcEENS_9allocatorIcEEEE9RateCurveEEPvEENS_22__hash_node_destructorINS6_ISC_EEEEE3getB8ue170006Ev, symObjAddr: 0x7368, symBinAddr: 0x100009F00, symSize: 0x28 }
  - { offsetInCU: 0x1A4C2, offset: 0x2293A, size: 0x8, addend: 0x0, symName: __ZNSt3__110unique_ptrINS_11__hash_nodeINS_17__hash_value_typeINS_12basic_stringIcNS_11char_traitsIcEENS_9allocatorIcEEEE9RateCurveEEPvEENS_22__hash_node_destructorINS6_ISC_EEEEE7releaseB8ue170006Ev, symObjAddr: 0x7390, symBinAddr: 0x100009F28, symSize: 0x44 }
  - { offsetInCU: 0x1A4F5, offset: 0x2296D, size: 0x8, addend: 0x0, symName: __ZNSt3__110unique_ptrINS_11__hash_nodeINS_17__hash_value_typeINS_12basic_stringIcNS_11char_traitsIcEENS_9allocatorIcEEEE9RateCurveEEPvEENS_22__hash_node_destructorINS6_ISC_EEEEED1B8ue170006Ev, symObjAddr: 0x73D4, symBinAddr: 0x100009F6C, symSize: 0x2C }
  - { offsetInCU: 0x1A51D, offset: 0x22995, size: 0x8, addend: 0x0, symName: __ZNSt3__115__hash_iteratorIPNS_11__hash_nodeINS_17__hash_value_typeINS_12basic_stringIcNS_11char_traitsIcEENS_9allocatorIcEEEE9RateCurveEEPvEEEC1B8ue170006EPNS_16__hash_node_baseISD_EE, symObjAddr: 0x7400, symBinAddr: 0x100009F98, symSize: 0x34 }
  - { offsetInCU: 0x1A55E, offset: 0x229D6, size: 0x8, addend: 0x0, symName: __ZNSt3__14pairINS_15__hash_iteratorIPNS_11__hash_nodeINS_17__hash_value_typeINS_12basic_stringIcNS_11char_traitsIcEENS_9allocatorIcEEEE9RateCurveEEPvEEEEbEC1B8ue170006ISF_RbLSC_0EEEOT_OT0_, symObjAddr: 0x7434, symBinAddr: 0x100009FCC, symSize: 0x3C }
  - { offsetInCU: 0x1A5BB, offset: 0x22A33, size: 0x8, addend: 0x0, symName: __ZNSt3__117__compressed_pairImNS_22__unordered_map_hasherINS_12basic_stringIcNS_11char_traitsIcEENS_9allocatorIcEEEENS_17__hash_value_typeIS7_9RateCurveEENS_4hashIS7_EENS_8equal_toIS7_EELb1EEEE6secondB8ue170006Ev, symObjAddr: 0x7470, symBinAddr: 0x10000A008, symSize: 0x24 }
  - { offsetInCU: 0x1A5DF, offset: 0x22A57, size: 0x8, addend: 0x0, symName: __ZNSt3__122__compressed_pair_elemINS_22__unordered_map_hasherINS_12basic_stringIcNS_11char_traitsIcEENS_9allocatorIcEEEENS_17__hash_value_typeIS7_9RateCurveEENS_4hashIS7_EENS_8equal_toIS7_EELb1EEELi1ELb1EE5__getB8ue170006Ev, symObjAddr: 0x7494, symBinAddr: 0x10000A02C, symSize: 0x14 }
  - { offsetInCU: 0x1A603, offset: 0x22A7B, size: 0x8, addend: 0x0, symName: __ZNKSt3__113__string_hashIcNS_9allocatorIcEEEclB8ue170006ERKNS_12basic_stringIcNS_11char_traitsIcEES2_EE, symObjAddr: 0x74A8, symBinAddr: 0x10000A040, symSize: 0x64 }
  - { offsetInCU: 0x1A636, offset: 0x22AAE, size: 0x8, addend: 0x0, symName: __ZNKSt3__121__murmur2_or_cityhashImLm64EEclB8ue170006EPKvm, symObjAddr: 0x7548, symBinAddr: 0x10000A0E0, symSize: 0x410 }
  - { offsetInCU: 0x1A6CE, offset: 0x22B46, size: 0x8, addend: 0x0, symName: __ZNSt3__121__murmur2_or_cityhashImLm64EE18__hash_len_0_to_16B8ue170006EPKcm, symObjAddr: 0x7958, symBinAddr: 0x10000A4F0, symSize: 0x1C0 }
  - { offsetInCU: 0x1A7A9, offset: 0x22C21, size: 0x8, addend: 0x0, symName: __ZNSt3__121__murmur2_or_cityhashImLm64EE19__hash_len_17_to_32B8ue170006EPKcm, symObjAddr: 0x7B18, symBinAddr: 0x10000A6B0, symSize: 0x130 }
  - { offsetInCU: 0x1A811, offset: 0x22C89, size: 0x8, addend: 0x0, symName: __ZNSt3__121__murmur2_or_cityhashImLm64EE19__hash_len_33_to_64B8ue170006EPKcm, symObjAddr: 0x7C48, symBinAddr: 0x10000A7E0, symSize: 0x2B8 }
  - { offsetInCU: 0x1A8C5, offset: 0x22D3D, size: 0x8, addend: 0x0, symName: __ZNSt3__121__murmur2_or_cityhashImLm64EE13__hash_len_16B8ue170006Emm, symObjAddr: 0x7F20, symBinAddr: 0x10000AAB8, symSize: 0x80 }
  - { offsetInCU: 0x1A91F, offset: 0x22D97, size: 0x8, addend: 0x0, symName: __ZNSt3__121__murmur2_or_cityhashImLm64EE29__weak_hash_len_32_with_seedsB8ue170006EPKcmm, symObjAddr: 0x7FA0, symBinAddr: 0x10000AB38, symSize: 0x88 }
  - { offsetInCU: 0x1A95D, offset: 0x22DD5, size: 0x8, addend: 0x0, symName: __ZNSt3__121__murmur2_or_cityhashImLm64EE8__rotateB8ue170006Emi, symObjAddr: 0x8028, symBinAddr: 0x10000ABC0, symSize: 0x64 }
  - { offsetInCU: 0x1A98D, offset: 0x22E05, size: 0x8, addend: 0x0, symName: __ZNSt3__14pairImmEaSB8ue170006EOS1_, symObjAddr: 0x808C, symBinAddr: 0x10000AC24, symSize: 0x30 }
  - { offsetInCU: 0x1A9C0, offset: 0x22E38, size: 0x8, addend: 0x0, symName: __ZNSt3__121__murmur2_or_cityhashImLm64EE11__shift_mixB8ue170006Em, symObjAddr: 0x80F8, symBinAddr: 0x10000AC90, symSize: 0x1C }
  - { offsetInCU: 0x1A9E2, offset: 0x22E5A, size: 0x8, addend: 0x0, symName: __ZNSt3__121__murmur2_or_cityhashImLm64EE22__rotate_by_at_least_1B8ue170006Emi, symObjAddr: 0x8114, symBinAddr: 0x10000ACAC, symSize: 0x38 }
  - { offsetInCU: 0x1AA12, offset: 0x22E8A, size: 0x8, addend: 0x0, symName: __ZNSt3__121__murmur2_or_cityhashImLm64EE29__weak_hash_len_32_with_seedsB8ue170006Emmmmmm, symObjAddr: 0x816C, symBinAddr: 0x10000AD04, symSize: 0xD8 }
  - { offsetInCU: 0x1AA8D, offset: 0x22F05, size: 0x8, addend: 0x0, symName: __ZNSt3__14pairImmEC1B8ue170006ImmLPv0EEEOT_OT0_, symObjAddr: 0x8244, symBinAddr: 0x10000ADDC, symSize: 0x3C }
  - { offsetInCU: 0x1AAEA, offset: 0x22F62, size: 0x8, addend: 0x0, symName: __ZNSt3__14pairImmEC2B8ue170006ImmLPv0EEEOT_OT0_, symObjAddr: 0x8280, symBinAddr: 0x10000AE18, symSize: 0x34 }
  - { offsetInCU: 0x1AB47, offset: 0x22FBF, size: 0x8, addend: 0x0, symName: __ZNKSt3__110unique_ptrIA_PNS_16__hash_node_baseIPNS_11__hash_nodeINS_17__hash_value_typeINS_12basic_stringIcNS_11char_traitsIcEENS_9allocatorIcEEEE9RateCurveEEPvEEEENS_25__bucket_list_deallocatorINS7_ISG_EEEEE11get_deleterB8ue170006Ev, symObjAddr: 0x82B4, symBinAddr: 0x10000AE4C, symSize: 0x24 }
  - { offsetInCU: 0x1AB6B, offset: 0x22FE3, size: 0x8, addend: 0x0, symName: __ZNKSt3__125__bucket_list_deallocatorINS_9allocatorIPNS_16__hash_node_baseIPNS_11__hash_nodeINS_17__hash_value_typeINS_12basic_stringIcNS_11char_traitsIcEENS1_IcEEEE9RateCurveEEPvEEEEEEE4sizeB8ue170006Ev, symObjAddr: 0x82D8, symBinAddr: 0x10000AE70, symSize: 0x28 }
  - { offsetInCU: 0x1AB8F, offset: 0x23007, size: 0x8, addend: 0x0, symName: __ZNKSt3__117__compressed_pairIPPNS_16__hash_node_baseIPNS_11__hash_nodeINS_17__hash_value_typeINS_12basic_stringIcNS_11char_traitsIcEENS_9allocatorIcEEEE9RateCurveEEPvEEEENS_25__bucket_list_deallocatorINS7_ISG_EEEEE6secondB8ue170006Ev, symObjAddr: 0x8300, symBinAddr: 0x10000AE98, symSize: 0x28 }
  - { offsetInCU: 0x1ABB3, offset: 0x2302B, size: 0x8, addend: 0x0, symName: __ZNKSt3__122__compressed_pair_elemINS_25__bucket_list_deallocatorINS_9allocatorIPNS_16__hash_node_baseIPNS_11__hash_nodeINS_17__hash_value_typeINS_12basic_stringIcNS_11char_traitsIcEENS2_IcEEEE9RateCurveEEPvEEEEEEEELi1ELb0EE5__getB8ue170006Ev, symObjAddr: 0x8328, symBinAddr: 0x10000AEC0, symSize: 0x14 }
  - { offsetInCU: 0x1ABD7, offset: 0x2304F, size: 0x8, addend: 0x0, symName: __ZNKSt3__117__compressed_pairImNS_9allocatorIPNS_16__hash_node_baseIPNS_11__hash_nodeINS_17__hash_value_typeINS_12basic_stringIcNS_11char_traitsIcEENS1_IcEEEE9RateCurveEEPvEEEEEEE5firstB8ue170006Ev, symObjAddr: 0x833C, symBinAddr: 0x10000AED4, symSize: 0x24 }
  - { offsetInCU: 0x1ABFB, offset: 0x23073, size: 0x8, addend: 0x0, symName: __ZNKSt3__122__compressed_pair_elemImLi0ELb0EE5__getB8ue170006Ev, symObjAddr: 0x8360, symBinAddr: 0x10000AEF8, symSize: 0x14 }
  - { offsetInCU: 0x1AC1F, offset: 0x23097, size: 0x8, addend: 0x0, symName: __ZNKSt3__117__compressed_pairIPPNS_16__hash_node_baseIPNS_11__hash_nodeINS_17__hash_value_typeINS_12basic_stringIcNS_11char_traitsIcEENS_9allocatorIcEEEE9RateCurveEEPvEEEENS_25__bucket_list_deallocatorINS7_ISG_EEEEE5firstB8ue170006Ev, symObjAddr: 0x8374, symBinAddr: 0x10000AF0C, symSize: 0x24 }
  - { offsetInCU: 0x1AC43, offset: 0x230BB, size: 0x8, addend: 0x0, symName: __ZNKSt3__122__compressed_pair_elemIPPNS_16__hash_node_baseIPNS_11__hash_nodeINS_17__hash_value_typeINS_12basic_stringIcNS_11char_traitsIcEENS_9allocatorIcEEEE9RateCurveEEPvEEEELi0ELb0EE5__getB8ue170006Ev, symObjAddr: 0x8398, symBinAddr: 0x10000AF30, symSize: 0x14 }
  - { offsetInCU: 0x1AC67, offset: 0x230DF, size: 0x8, addend: 0x0, symName: __ZNSt3__117__compressed_pairIfNS_21__unordered_map_equalINS_12basic_stringIcNS_11char_traitsIcEENS_9allocatorIcEEEENS_17__hash_value_typeIS7_9RateCurveEENS_8equal_toIS7_EENS_4hashIS7_EELb1EEEE6secondB8ue170006Ev, symObjAddr: 0x83AC, symBinAddr: 0x10000AF44, symSize: 0x24 }
  - { offsetInCU: 0x1AC8B, offset: 0x23103, size: 0x8, addend: 0x0, symName: __ZNSt3__122__compressed_pair_elemINS_21__unordered_map_equalINS_12basic_stringIcNS_11char_traitsIcEENS_9allocatorIcEEEENS_17__hash_value_typeIS7_9RateCurveEENS_8equal_toIS7_EENS_4hashIS7_EELb1EEELi1ELb1EE5__getB8ue170006Ev, symObjAddr: 0x83D0, symBinAddr: 0x10000AF68, symSize: 0x14 }
  - { offsetInCU: 0x1ACAF, offset: 0x23127, size: 0x8, addend: 0x0, symName: __ZNKSt3__18equal_toINS_12basic_stringIcNS_11char_traitsIcEENS_9allocatorIcEEEEEclB8ue170006ERKS6_S9_, symObjAddr: 0x83E4, symBinAddr: 0x10000AF7C, symSize: 0x34 }
  - { offsetInCU: 0x1ACF1, offset: 0x23169, size: 0x8, addend: 0x0, symName: __ZNSt3__111char_traitsIcE7compareB8ue170006EPKcS3_m, symObjAddr: 0x8560, symBinAddr: 0x10000B0F8, symSize: 0x34 }
  - { offsetInCU: 0x1AD2F, offset: 0x231A7, size: 0x8, addend: 0x0, symName: __ZNSt3__112__hash_tableINS_17__hash_value_typeINS_12basic_stringIcNS_11char_traitsIcEENS_9allocatorIcEEEE9RateCurveEENS_22__unordered_map_hasherIS7_S9_NS_4hashIS7_EENS_8equal_toIS7_EELb1EEENS_21__unordered_map_equalIS7_S9_SE_SC_Lb1EEENS5_IS9_EEE12__node_allocB8ue170006Ev, symObjAddr: 0x8594, symBinAddr: 0x10000B12C, symSize: 0x28 }
  - { offsetInCU: 0x1AD53, offset: 0x231CB, size: 0x8, addend: 0x0, symName: __ZNSt3__116allocator_traitsINS_9allocatorINS_11__hash_nodeINS_17__hash_value_typeINS_12basic_stringIcNS_11char_traitsIcEENS1_IcEEEE9RateCurveEEPvEEEEE8allocateB8ue170006ERSD_m, symObjAddr: 0x85BC, symBinAddr: 0x10000B154, symSize: 0x2C }
  - { offsetInCU: 0x1AD85, offset: 0x231FD, size: 0x8, addend: 0x0, symName: __ZNSt3__122__hash_node_destructorINS_9allocatorINS_11__hash_nodeINS_17__hash_value_typeINS_12basic_stringIcNS_11char_traitsIcEENS1_IcEEEE9RateCurveEEPvEEEEEC1B8ue170006ERSD_b, symObjAddr: 0x85E8, symBinAddr: 0x10000B180, symSize: 0x48 }
  - { offsetInCU: 0x1ADD0, offset: 0x23248, size: 0x8, addend: 0x0, symName: __ZNSt3__110unique_ptrINS_11__hash_nodeINS_17__hash_value_typeINS_12basic_stringIcNS_11char_traitsIcEENS_9allocatorIcEEEE9RateCurveEEPvEENS_22__hash_node_destructorINS6_ISC_EEEEEC1B8ue170006ILb1EvEEPSC_NS_16__dependent_typeINS_27__unique_ptr_deleter_sfinaeISF_EEXT_EE20__good_rval_ref_typeE, symObjAddr: 0x8630, symBinAddr: 0x10000B1C8, symSize: 0x3C }
  - { offsetInCU: 0x1AE20, offset: 0x23298, size: 0x8, addend: 0x0, symName: __ZNSt3__116allocator_traitsINS_9allocatorINS_11__hash_nodeINS_17__hash_value_typeINS_12basic_stringIcNS_11char_traitsIcEENS1_IcEEEE9RateCurveEEPvEEEEE9constructB8ue170006INS_4pairIKS8_S9_EEJRSH_RKS9_EvEEvRSD_PT_DpOT0_, symObjAddr: 0x866C, symBinAddr: 0x10000B204, symSize: 0x3C }
  - { offsetInCU: 0x1AE8D, offset: 0x23305, size: 0x8, addend: 0x0, symName: __ZNSt3__122__hash_key_value_typesINS_17__hash_value_typeINS_12basic_stringIcNS_11char_traitsIcEENS_9allocatorIcEEEE9RateCurveEEE9__get_ptrB8ue170006ERS9_, symObjAddr: 0x86A8, symBinAddr: 0x10000B240, symSize: 0x24 }
  - { offsetInCU: 0x1AEAF, offset: 0x23327, size: 0x8, addend: 0x0, symName: __ZNSt3__110unique_ptrINS_11__hash_nodeINS_17__hash_value_typeINS_12basic_stringIcNS_11char_traitsIcEENS_9allocatorIcEEEE9RateCurveEEPvEENS_22__hash_node_destructorINS6_ISC_EEEEE11get_deleterB8ue170006Ev, symObjAddr: 0x86CC, symBinAddr: 0x10000B264, symSize: 0x24 }
  - { offsetInCU: 0x1AED3, offset: 0x2334B, size: 0x8, addend: 0x0, symName: __ZNSt3__117__compressed_pairINS_16__hash_node_baseIPNS_11__hash_nodeINS_17__hash_value_typeINS_12basic_stringIcNS_11char_traitsIcEENS_9allocatorIcEEEE9RateCurveEEPvEEEENS7_ISD_EEE6secondB8ue170006Ev, symObjAddr: 0x86F0, symBinAddr: 0x10000B288, symSize: 0x24 }
  - { offsetInCU: 0x1AEF7, offset: 0x2336F, size: 0x8, addend: 0x0, symName: __ZNSt3__122__compressed_pair_elemINS_9allocatorINS_11__hash_nodeINS_17__hash_value_typeINS_12basic_stringIcNS_11char_traitsIcEENS1_IcEEEE9RateCurveEEPvEEEELi1ELb1EE5__getB8ue170006Ev, symObjAddr: 0x8714, symBinAddr: 0x10000B2AC, symSize: 0x14 }
  - { offsetInCU: 0x1AF1B, offset: 0x23393, size: 0x8, addend: 0x0, symName: __ZNSt3__19allocatorINS_11__hash_nodeINS_17__hash_value_typeINS_12basic_stringIcNS_11char_traitsIcEENS0_IcEEEE9RateCurveEEPvEEE8allocateB8ue170006Em, symObjAddr: 0x8728, symBinAddr: 0x10000B2C0, symSize: 0x5C }
  - { offsetInCU: 0x1AF57, offset: 0x233CF, size: 0x8, addend: 0x0, symName: __ZNSt3__116allocator_traitsINS_9allocatorINS_11__hash_nodeINS_17__hash_value_typeINS_12basic_stringIcNS_11char_traitsIcEENS1_IcEEEE9RateCurveEEPvEEEEE8max_sizeB8ue170006ISD_vEEmRKSD_, symObjAddr: 0x8784, symBinAddr: 0x10000B31C, symSize: 0x24 }
  - { offsetInCU: 0x1AF85, offset: 0x233FD, size: 0x8, addend: 0x0, symName: __ZNKSt3__19allocatorINS_11__hash_nodeINS_17__hash_value_typeINS_12basic_stringIcNS_11char_traitsIcEENS0_IcEEEE9RateCurveEEPvEEE8max_sizeB8ue170006Ev, symObjAddr: 0x87A8, symBinAddr: 0x10000B340, symSize: 0x20 }
  - { offsetInCU: 0x1AFA9, offset: 0x23421, size: 0x8, addend: 0x0, symName: __ZNSt3__122__hash_node_destructorINS_9allocatorINS_11__hash_nodeINS_17__hash_value_typeINS_12basic_stringIcNS_11char_traitsIcEENS1_IcEEEE9RateCurveEEPvEEEEEC2B8ue170006ERSD_b, symObjAddr: 0x87C8, symBinAddr: 0x10000B360, symSize: 0x38 }
  - { offsetInCU: 0x1AFEF, offset: 0x23467, size: 0x8, addend: 0x0, symName: __ZNSt3__110unique_ptrINS_11__hash_nodeINS_17__hash_value_typeINS_12basic_stringIcNS_11char_traitsIcEENS_9allocatorIcEEEE9RateCurveEEPvEENS_22__hash_node_destructorINS6_ISC_EEEEEC2B8ue170006ILb1EvEEPSC_NS_16__dependent_typeINS_27__unique_ptr_deleter_sfinaeISF_EEXT_EE20__good_rval_ref_typeE, symObjAddr: 0x8800, symBinAddr: 0x10000B398, symSize: 0x48 }
  - { offsetInCU: 0x1B03F, offset: 0x234B7, size: 0x8, addend: 0x0, symName: __ZNSt3__117__compressed_pairIPNS_11__hash_nodeINS_17__hash_value_typeINS_12basic_stringIcNS_11char_traitsIcEENS_9allocatorIcEEEE9RateCurveEEPvEENS_22__hash_node_destructorINS6_ISC_EEEEEC1B8ue170006IRSD_SG_EEOT_OT0_, symObjAddr: 0x8848, symBinAddr: 0x10000B3E0, symSize: 0x3C }
  - { offsetInCU: 0x1B095, offset: 0x2350D, size: 0x8, addend: 0x0, symName: __ZNSt3__117__compressed_pairIPNS_11__hash_nodeINS_17__hash_value_typeINS_12basic_stringIcNS_11char_traitsIcEENS_9allocatorIcEEEE9RateCurveEEPvEENS_22__hash_node_destructorINS6_ISC_EEEEEC2B8ue170006IRSD_SG_EEOT_OT0_, symObjAddr: 0x8884, symBinAddr: 0x10000B41C, symSize: 0x48 }
  - { offsetInCU: 0x1B0EB, offset: 0x23563, size: 0x8, addend: 0x0, symName: __ZNSt3__122__compressed_pair_elemIPNS_11__hash_nodeINS_17__hash_value_typeINS_12basic_stringIcNS_11char_traitsIcEENS_9allocatorIcEEEE9RateCurveEEPvEELi0ELb0EEC2B8ue170006IRSD_vEEOT_, symObjAddr: 0x88CC, symBinAddr: 0x10000B464, symSize: 0x24 }
  - { offsetInCU: 0x1B12C, offset: 0x235A4, size: 0x8, addend: 0x0, symName: __ZNSt3__122__compressed_pair_elemINS_22__hash_node_destructorINS_9allocatorINS_11__hash_nodeINS_17__hash_value_typeINS_12basic_stringIcNS_11char_traitsIcEENS2_IcEEEE9RateCurveEEPvEEEEEELi1ELb0EEC2B8ue170006ISF_vEEOT_, symObjAddr: 0x88F0, symBinAddr: 0x10000B488, symSize: 0x24 }
  - { offsetInCU: 0x1B16D, offset: 0x235E5, size: 0x8, addend: 0x0, symName: __ZNSt3__19allocatorINS_11__hash_nodeINS_17__hash_value_typeINS_12basic_stringIcNS_11char_traitsIcEENS0_IcEEEE9RateCurveEEPvEEE9constructB8ue170006INS_4pairIKS7_S8_EEJRSF_RKS8_EEEvPT_DpOT0_, symObjAddr: 0x8914, symBinAddr: 0x10000B4AC, symSize: 0x38 }
  - { offsetInCU: 0x1B1D6, offset: 0x2364E, size: 0x8, addend: 0x0, symName: __ZNSt3__14pairIKNS_12basic_stringIcNS_11char_traitsIcEENS_9allocatorIcEEEE9RateCurveEC1B8ue170006ILb1ELPv0EEERS7_RKS8_, symObjAddr: 0x894C, symBinAddr: 0x10000B4E4, symSize: 0x3C }
  - { offsetInCU: 0x1B22B, offset: 0x236A3, size: 0x8, addend: 0x0, symName: __ZNSt3__14pairIKNS_12basic_stringIcNS_11char_traitsIcEENS_9allocatorIcEEEE9RateCurveEC2B8ue170006ILb1ELPv0EEERS7_RKS8_, symObjAddr: 0x8988, symBinAddr: 0x10000B520, symSize: 0x70 }
  - { offsetInCU: 0x1B280, offset: 0x236F8, size: 0x8, addend: 0x0, symName: __ZNSt3__117__hash_value_typeINS_12basic_stringIcNS_11char_traitsIcEENS_9allocatorIcEEEE9RateCurveE11__get_valueB8ue170006Ev, symObjAddr: 0x89F8, symBinAddr: 0x10000B590, symSize: 0x24 }
  - { offsetInCU: 0x1B2A4, offset: 0x2371C, size: 0x8, addend: 0x0, symName: __ZNSt3__117__compressed_pairIPNS_11__hash_nodeINS_17__hash_value_typeINS_12basic_stringIcNS_11char_traitsIcEENS_9allocatorIcEEEE9RateCurveEEPvEENS_22__hash_node_destructorINS6_ISC_EEEEE6secondB8ue170006Ev, symObjAddr: 0x8A54, symBinAddr: 0x10000B5EC, symSize: 0x28 }
  - { offsetInCU: 0x1B2C8, offset: 0x23740, size: 0x8, addend: 0x0, symName: __ZNSt3__122__compressed_pair_elemINS_22__hash_node_destructorINS_9allocatorINS_11__hash_nodeINS_17__hash_value_typeINS_12basic_stringIcNS_11char_traitsIcEENS2_IcEEEE9RateCurveEEPvEEEEEELi1ELb0EE5__getB8ue170006Ev, symObjAddr: 0x8A7C, symBinAddr: 0x10000B614, symSize: 0x14 }
  - { offsetInCU: 0x1B2EC, offset: 0x23764, size: 0x8, addend: 0x0, symName: __ZNSt3__117__compressed_pairImNS_22__unordered_map_hasherINS_12basic_stringIcNS_11char_traitsIcEENS_9allocatorIcEEEENS_17__hash_value_typeIS7_9RateCurveEENS_4hashIS7_EENS_8equal_toIS7_EELb1EEEE5firstB8ue170006Ev, symObjAddr: 0x8A90, symBinAddr: 0x10000B628, symSize: 0x24 }
  - { offsetInCU: 0x1B310, offset: 0x23788, size: 0x8, addend: 0x0, symName: __ZNSt3__122__compressed_pair_elemImLi0ELb0EE5__getB8ue170006Ev, symObjAddr: 0x8AB4, symBinAddr: 0x10000B64C, symSize: 0x14 }
  - { offsetInCU: 0x1B334, offset: 0x237AC, size: 0x8, addend: 0x0, symName: __ZNSt3__117__compressed_pairIfNS_21__unordered_map_equalINS_12basic_stringIcNS_11char_traitsIcEENS_9allocatorIcEEEENS_17__hash_value_typeIS7_9RateCurveEENS_8equal_toIS7_EENS_4hashIS7_EELb1EEEE5firstB8ue170006Ev, symObjAddr: 0x8AC8, symBinAddr: 0x10000B660, symSize: 0x24 }
  - { offsetInCU: 0x1B358, offset: 0x237D0, size: 0x8, addend: 0x0, symName: __ZNSt3__122__compressed_pair_elemIfLi0ELb0EE5__getB8ue170006Ev, symObjAddr: 0x8AEC, symBinAddr: 0x10000B684, symSize: 0x14 }
  - { offsetInCU: 0x1B37B, offset: 0x237F3, size: 0x8, addend: 0x0, symName: __ZNSt3__112__hash_tableINS_17__hash_value_typeINS_12basic_stringIcNS_11char_traitsIcEENS_9allocatorIcEEEE9RateCurveEENS_22__unordered_map_hasherIS7_S9_NS_4hashIS7_EENS_8equal_toIS7_EELb1EEENS_21__unordered_map_equalIS7_S9_SE_SC_Lb1EEENS5_IS9_EEE8__rehashILb1EEEvm, symObjAddr: 0x8B00, symBinAddr: 0x10000B698, symSize: 0x1A8 }
  - { offsetInCU: 0x1B3C9, offset: 0x23841, size: 0x8, addend: 0x0, symName: __ZNSt3__112__hash_tableINS_17__hash_value_typeINS_12basic_stringIcNS_11char_traitsIcEENS_9allocatorIcEEEE9RateCurveEENS_22__unordered_map_hasherIS7_S9_NS_4hashIS7_EENS_8equal_toIS7_EELb1EEENS_21__unordered_map_equalIS7_S9_SE_SC_Lb1EEENS5_IS9_EEE11__do_rehashILb1EEEvm, symObjAddr: 0x8CA8, symBinAddr: 0x10000B840, symSize: 0x288 }
  - { offsetInCU: 0x1B4AF, offset: 0x23927, size: 0x8, addend: 0x0, symName: __ZNSt3__110unique_ptrIA_PNS_16__hash_node_baseIPNS_11__hash_nodeINS_17__hash_value_typeINS_12basic_stringIcNS_11char_traitsIcEENS_9allocatorIcEEEE9RateCurveEEPvEEEENS_25__bucket_list_deallocatorINS7_ISG_EEEEE11get_deleterB8ue170006Ev, symObjAddr: 0x8F9C, symBinAddr: 0x10000BB34, symSize: 0x24 }
  - { offsetInCU: 0x1B4D3, offset: 0x2394B, size: 0x8, addend: 0x0, symName: __ZNSt3__125__bucket_list_deallocatorINS_9allocatorIPNS_16__hash_node_baseIPNS_11__hash_nodeINS_17__hash_value_typeINS_12basic_stringIcNS_11char_traitsIcEENS1_IcEEEE9RateCurveEEPvEEEEEEE7__allocB8ue170006Ev, symObjAddr: 0x8FC0, symBinAddr: 0x10000BB58, symSize: 0x24 }
  - { offsetInCU: 0x1B4F7, offset: 0x2396F, size: 0x8, addend: 0x0, symName: __ZNSt3__110unique_ptrIA_PNS_16__hash_node_baseIPNS_11__hash_nodeINS_17__hash_value_typeINS_12basic_stringIcNS_11char_traitsIcEENS_9allocatorIcEEEE9RateCurveEEPvEEEENS_25__bucket_list_deallocatorINS7_ISG_EEEEE5resetB8ue170006IPSG_EENS_9enable_ifIXsr28_CheckArrayPointerConversionIT_EE5valueEvE4typeESP_, symObjAddr: 0x8FE4, symBinAddr: 0x10000BB7C, symSize: 0x78 }
  - { offsetInCU: 0x1B542, offset: 0x239BA, size: 0x8, addend: 0x0, symName: __ZNSt3__116allocator_traitsINS_9allocatorIPNS_16__hash_node_baseIPNS_11__hash_nodeINS_17__hash_value_typeINS_12basic_stringIcNS_11char_traitsIcEENS1_IcEEEE9RateCurveEEPvEEEEEEE8allocateB8ue170006ERSH_m, symObjAddr: 0x905C, symBinAddr: 0x10000BBF4, symSize: 0x2C }
  - { offsetInCU: 0x1B574, offset: 0x239EC, size: 0x8, addend: 0x0, symName: __ZNSt3__125__bucket_list_deallocatorINS_9allocatorIPNS_16__hash_node_baseIPNS_11__hash_nodeINS_17__hash_value_typeINS_12basic_stringIcNS_11char_traitsIcEENS1_IcEEEE9RateCurveEEPvEEEEEEE4sizeB8ue170006Ev, symObjAddr: 0x9088, symBinAddr: 0x10000BC20, symSize: 0x24 }
  - { offsetInCU: 0x1B598, offset: 0x23A10, size: 0x8, addend: 0x0, symName: __ZNSt3__117__compressed_pairIPPNS_16__hash_node_baseIPNS_11__hash_nodeINS_17__hash_value_typeINS_12basic_stringIcNS_11char_traitsIcEENS_9allocatorIcEEEE9RateCurveEEPvEEEENS_25__bucket_list_deallocatorINS7_ISG_EEEEE6secondB8ue170006Ev, symObjAddr: 0x90AC, symBinAddr: 0x10000BC44, symSize: 0x28 }
  - { offsetInCU: 0x1B5BC, offset: 0x23A34, size: 0x8, addend: 0x0, symName: __ZNSt3__122__compressed_pair_elemINS_25__bucket_list_deallocatorINS_9allocatorIPNS_16__hash_node_baseIPNS_11__hash_nodeINS_17__hash_value_typeINS_12basic_stringIcNS_11char_traitsIcEENS2_IcEEEE9RateCurveEEPvEEEEEEEELi1ELb0EE5__getB8ue170006Ev, symObjAddr: 0x90D4, symBinAddr: 0x10000BC6C, symSize: 0x14 }
  - { offsetInCU: 0x1B5E0, offset: 0x23A58, size: 0x8, addend: 0x0, symName: __ZNSt3__117__compressed_pairImNS_9allocatorIPNS_16__hash_node_baseIPNS_11__hash_nodeINS_17__hash_value_typeINS_12basic_stringIcNS_11char_traitsIcEENS1_IcEEEE9RateCurveEEPvEEEEEEE6secondB8ue170006Ev, symObjAddr: 0x90E8, symBinAddr: 0x10000BC80, symSize: 0x24 }
  - { offsetInCU: 0x1B604, offset: 0x23A7C, size: 0x8, addend: 0x0, symName: __ZNSt3__122__compressed_pair_elemINS_9allocatorIPNS_16__hash_node_baseIPNS_11__hash_nodeINS_17__hash_value_typeINS_12basic_stringIcNS_11char_traitsIcEENS1_IcEEEE9RateCurveEEPvEEEEEELi1ELb1EE5__getB8ue170006Ev, symObjAddr: 0x910C, symBinAddr: 0x10000BCA4, symSize: 0x14 }
  - { offsetInCU: 0x1B628, offset: 0x23AA0, size: 0x8, addend: 0x0, symName: __ZNSt3__117__compressed_pairIPPNS_16__hash_node_baseIPNS_11__hash_nodeINS_17__hash_value_typeINS_12basic_stringIcNS_11char_traitsIcEENS_9allocatorIcEEEE9RateCurveEEPvEEEENS_25__bucket_list_deallocatorINS7_ISG_EEEEE5firstB8ue170006Ev, symObjAddr: 0x9120, symBinAddr: 0x10000BCB8, symSize: 0x24 }
  - { offsetInCU: 0x1B64C, offset: 0x23AC4, size: 0x8, addend: 0x0, symName: __ZNSt3__125__bucket_list_deallocatorINS_9allocatorIPNS_16__hash_node_baseIPNS_11__hash_nodeINS_17__hash_value_typeINS_12basic_stringIcNS_11char_traitsIcEENS1_IcEEEE9RateCurveEEPvEEEEEEEclB8ue170006EPSG_, symObjAddr: 0x9144, symBinAddr: 0x10000BCDC, symSize: 0x58 }
  - { offsetInCU: 0x1B67F, offset: 0x23AF7, size: 0x8, addend: 0x0, symName: __ZNSt3__122__compressed_pair_elemIPPNS_16__hash_node_baseIPNS_11__hash_nodeINS_17__hash_value_typeINS_12basic_stringIcNS_11char_traitsIcEENS_9allocatorIcEEEE9RateCurveEEPvEEEELi0ELb0EE5__getB8ue170006Ev, symObjAddr: 0x919C, symBinAddr: 0x10000BD34, symSize: 0x14 }
  - { offsetInCU: 0x1B6A3, offset: 0x23B1B, size: 0x8, addend: 0x0, symName: __ZNSt3__116allocator_traitsINS_9allocatorIPNS_16__hash_node_baseIPNS_11__hash_nodeINS_17__hash_value_typeINS_12basic_stringIcNS_11char_traitsIcEENS1_IcEEEE9RateCurveEEPvEEEEEEE10deallocateB8ue170006ERSH_PSG_m, symObjAddr: 0x91B0, symBinAddr: 0x10000BD48, symSize: 0x34 }
  - { offsetInCU: 0x1B6E4, offset: 0x23B5C, size: 0x8, addend: 0x0, symName: __ZNSt3__19allocatorIPNS_16__hash_node_baseIPNS_11__hash_nodeINS_17__hash_value_typeINS_12basic_stringIcNS_11char_traitsIcEENS0_IcEEEE9RateCurveEEPvEEEEE10deallocateB8ue170006EPSF_m, symObjAddr: 0x91E4, symBinAddr: 0x10000BD7C, symSize: 0x40 }
  - { offsetInCU: 0x1B724, offset: 0x23B9C, size: 0x8, addend: 0x0, symName: __ZNSt3__19allocatorIPNS_16__hash_node_baseIPNS_11__hash_nodeINS_17__hash_value_typeINS_12basic_stringIcNS_11char_traitsIcEENS0_IcEEEE9RateCurveEEPvEEEEE8allocateB8ue170006Em, symObjAddr: 0x9224, symBinAddr: 0x10000BDBC, symSize: 0x58 }
  - { offsetInCU: 0x1B760, offset: 0x23BD8, size: 0x8, addend: 0x0, symName: __ZNSt3__116allocator_traitsINS_9allocatorIPNS_16__hash_node_baseIPNS_11__hash_nodeINS_17__hash_value_typeINS_12basic_stringIcNS_11char_traitsIcEENS1_IcEEEE9RateCurveEEPvEEEEEEE8max_sizeB8ue170006ISH_vEEmRKSH_, symObjAddr: 0x927C, symBinAddr: 0x10000BE14, symSize: 0x24 }
  - { offsetInCU: 0x1B78E, offset: 0x23C06, size: 0x8, addend: 0x0, symName: __ZNKSt3__19allocatorIPNS_16__hash_node_baseIPNS_11__hash_nodeINS_17__hash_value_typeINS_12basic_stringIcNS_11char_traitsIcEENS0_IcEEEE9RateCurveEEPvEEEEE8max_sizeB8ue170006Ev, symObjAddr: 0x92A0, symBinAddr: 0x10000BE38, symSize: 0x14 }
  - { offsetInCU: 0x1B7B2, offset: 0x23C2A, size: 0x8, addend: 0x0, symName: __ZNSt3__117__compressed_pairImNS_9allocatorIPNS_16__hash_node_baseIPNS_11__hash_nodeINS_17__hash_value_typeINS_12basic_stringIcNS_11char_traitsIcEENS1_IcEEEE9RateCurveEEPvEEEEEEE5firstB8ue170006Ev, symObjAddr: 0x92B4, symBinAddr: 0x10000BE4C, symSize: 0x24 }
  - { offsetInCU: 0x1B7D6, offset: 0x23C4E, size: 0x8, addend: 0x0, symName: __ZNSt3__122__compressed_pair_elemINS_16__hash_node_baseIPNS_11__hash_nodeINS_17__hash_value_typeINS_12basic_stringIcNS_11char_traitsIcEENS_9allocatorIcEEEE9RateCurveEEPvEEEELi0ELb0EE5__getB8ue170006Ev, symObjAddr: 0x92F4, symBinAddr: 0x10000BE8C, symSize: 0x14 }
  - { offsetInCU: 0x1B7FA, offset: 0x23C72, size: 0x8, addend: 0x0, symName: __ZNKSt3__117__compressed_pairIPNS_11__hash_nodeINS_17__hash_value_typeINS_12basic_stringIcNS_11char_traitsIcEENS_9allocatorIcEEEE9RateCurveEEPvEENS_22__hash_node_destructorINS6_ISC_EEEEE5firstB8ue170006Ev, symObjAddr: 0x9308, symBinAddr: 0x10000BEA0, symSize: 0x24 }
  - { offsetInCU: 0x1B81E, offset: 0x23C96, size: 0x8, addend: 0x0, symName: __ZNKSt3__122__compressed_pair_elemIPNS_11__hash_nodeINS_17__hash_value_typeINS_12basic_stringIcNS_11char_traitsIcEENS_9allocatorIcEEEE9RateCurveEEPvEELi0ELb0EE5__getB8ue170006Ev, symObjAddr: 0x932C, symBinAddr: 0x10000BEC4, symSize: 0x14 }
  - { offsetInCU: 0x1B842, offset: 0x23CBA, size: 0x8, addend: 0x0, symName: __ZNSt3__117__compressed_pairIPNS_11__hash_nodeINS_17__hash_value_typeINS_12basic_stringIcNS_11char_traitsIcEENS_9allocatorIcEEEE9RateCurveEEPvEENS_22__hash_node_destructorINS6_ISC_EEEEE5firstB8ue170006Ev, symObjAddr: 0x9340, symBinAddr: 0x10000BED8, symSize: 0x24 }
  - { offsetInCU: 0x1B866, offset: 0x23CDE, size: 0x8, addend: 0x0, symName: __ZNSt3__122__compressed_pair_elemIPNS_11__hash_nodeINS_17__hash_value_typeINS_12basic_stringIcNS_11char_traitsIcEENS_9allocatorIcEEEE9RateCurveEEPvEELi0ELb0EE5__getB8ue170006Ev, symObjAddr: 0x9364, symBinAddr: 0x10000BEFC, symSize: 0x14 }
  - { offsetInCU: 0x1B88A, offset: 0x23D02, size: 0x8, addend: 0x0, symName: __ZNSt3__110unique_ptrINS_11__hash_nodeINS_17__hash_value_typeINS_12basic_stringIcNS_11char_traitsIcEENS_9allocatorIcEEEE9RateCurveEEPvEENS_22__hash_node_destructorINS6_ISC_EEEEED2B8ue170006Ev, symObjAddr: 0x9378, symBinAddr: 0x10000BF10, symSize: 0x30 }
  - { offsetInCU: 0x1B8B2, offset: 0x23D2A, size: 0x8, addend: 0x0, symName: __ZNSt3__110unique_ptrINS_11__hash_nodeINS_17__hash_value_typeINS_12basic_stringIcNS_11char_traitsIcEENS_9allocatorIcEEEE9RateCurveEEPvEENS_22__hash_node_destructorINS6_ISC_EEEEE5resetB8ue170006EPSC_, symObjAddr: 0x93A8, symBinAddr: 0x10000BF40, symSize: 0x78 }
  - { offsetInCU: 0x1B8F4, offset: 0x23D6C, size: 0x8, addend: 0x0, symName: __ZNSt3__122__hash_node_destructorINS_9allocatorINS_11__hash_nodeINS_17__hash_value_typeINS_12basic_stringIcNS_11char_traitsIcEENS1_IcEEEE9RateCurveEEPvEEEEEclB8ue170006EPSC_, symObjAddr: 0x9420, symBinAddr: 0x10000BFB8, symSize: 0x98 }
  - { offsetInCU: 0x1B927, offset: 0x23D9F, size: 0x8, addend: 0x0, symName: __ZNSt3__116allocator_traitsINS_9allocatorINS_11__hash_nodeINS_17__hash_value_typeINS_12basic_stringIcNS_11char_traitsIcEENS1_IcEEEE9RateCurveEEPvEEEEE7destroyB8ue170006INS_4pairIKS8_S9_EEvvEEvRSD_PT_, symObjAddr: 0x94B8, symBinAddr: 0x10000C050, symSize: 0x28 }
  - { offsetInCU: 0x1B963, offset: 0x23DDB, size: 0x8, addend: 0x0, symName: __ZNSt3__116allocator_traitsINS_9allocatorINS_11__hash_nodeINS_17__hash_value_typeINS_12basic_stringIcNS_11char_traitsIcEENS1_IcEEEE9RateCurveEEPvEEEEE10deallocateB8ue170006ERSD_PSC_m, symObjAddr: 0x94E0, symBinAddr: 0x10000C078, symSize: 0x34 }
  - { offsetInCU: 0x1B9A4, offset: 0x23E1C, size: 0x8, addend: 0x0, symName: __ZNSt3__19allocatorINS_11__hash_nodeINS_17__hash_value_typeINS_12basic_stringIcNS_11char_traitsIcEENS0_IcEEEE9RateCurveEEPvEEE10deallocateB8ue170006EPSB_m, symObjAddr: 0x9514, symBinAddr: 0x10000C0AC, symSize: 0x44 }
  - { offsetInCU: 0x1B9E4, offset: 0x23E5C, size: 0x8, addend: 0x0, symName: __ZNSt3__115__hash_iteratorIPNS_11__hash_nodeINS_17__hash_value_typeINS_12basic_stringIcNS_11char_traitsIcEENS_9allocatorIcEEEE9RateCurveEEPvEEEC2B8ue170006EPNS_16__hash_node_baseISD_EE, symObjAddr: 0x9558, symBinAddr: 0x10000C0F0, symSize: 0x20 }
  - { offsetInCU: 0x1BA1B, offset: 0x23E93, size: 0x8, addend: 0x0, symName: __ZNSt3__14pairINS_15__hash_iteratorIPNS_11__hash_nodeINS_17__hash_value_typeINS_12basic_stringIcNS_11char_traitsIcEENS_9allocatorIcEEEE9RateCurveEEPvEEEEbEC2B8ue170006ISF_RbLSC_0EEEOT_OT0_, symObjAddr: 0x9578, symBinAddr: 0x10000C110, symSize: 0x38 }
  - { offsetInCU: 0x1BA78, offset: 0x23EF0, size: 0x8, addend: 0x0, symName: __ZNSt3__14pairINS_19__hash_map_iteratorINS_15__hash_iteratorIPNS_11__hash_nodeINS_17__hash_value_typeINS_12basic_stringIcNS_11char_traitsIcEENS_9allocatorIcEEEE9RateCurveEEPvEEEEEEbEC2B8ue170006ISG_bLSD_0EEEONS0_IT_T0_EE, symObjAddr: 0x95B0, symBinAddr: 0x10000C148, symSize: 0x50 }
  - { offsetInCU: 0x1BAC8, offset: 0x23F40, size: 0x8, addend: 0x0, symName: __ZNSt3__119__hash_map_iteratorINS_15__hash_iteratorIPNS_11__hash_nodeINS_17__hash_value_typeINS_12basic_stringIcNS_11char_traitsIcEENS_9allocatorIcEEEE9RateCurveEEPvEEEEEC1B8ue170006ESF_, symObjAddr: 0x9600, symBinAddr: 0x10000C198, symSize: 0x34 }
  - { offsetInCU: 0x1BAFF, offset: 0x23F77, size: 0x8, addend: 0x0, symName: __ZNSt3__119__hash_map_iteratorINS_15__hash_iteratorIPNS_11__hash_nodeINS_17__hash_value_typeINS_12basic_stringIcNS_11char_traitsIcEENS_9allocatorIcEEEE9RateCurveEEPvEEEEEC2B8ue170006ESF_, symObjAddr: 0x9634, symBinAddr: 0x10000C1CC, symSize: 0x20 }
  - { offsetInCU: 0x8966, offset: 0x2CB8F, size: 0x8, addend: 0x0, symName: __ZNSt3__1eqB8ue170006IcNS_11char_traitsIcEENS_9allocatorIcEEEEbRKNS_12basic_stringIT_T0_T1_EEPKS6_, symObjAddr: 0x110, symBinAddr: 0x10000C2FC, symSize: 0xAC }
  - { offsetInCU: 0x8B00, offset: 0x2CD29, size: 0x8, addend: 0x0, symName: __Z3powB8ue170006IdiENSt3__19enable_ifIXaasr3std13is_arithmeticIT_EE5valuesr3std13is_arithmeticIT0_EE5valueENS0_9__promoteIS2_S3_vEEE4type4typeES2_S3_, symObjAddr: 0x83C, symBinAddr: 0x10000CA28, symSize: 0x38 }
  - { offsetInCU: 0xB270, offset: 0x2F499, size: 0x8, addend: 0x0, symName: __ZN6Pricer5PriceERK6MarketP5Trade, symObjAddr: 0x0, symBinAddr: 0x10000C1EC, symSize: 0x110 }
  - { offsetInCU: 0xB2FB, offset: 0x2F524, size: 0x8, addend: 0x0, symName: __ZN5Trade7getTypeEv, symObjAddr: 0x1BC, symBinAddr: 0x10000C3A8, symSize: 0x3C }
  - { offsetInCU: 0xB42D, offset: 0x2F656, size: 0x8, addend: 0x0, symName: __ZN18BinomialTreePricer9PriceTreeERK6MarketRK11TreeProduct, symObjAddr: 0x1F8, symBinAddr: 0x10000C3E4, symSize: 0x2A0 }
  - { offsetInCU: 0xB53D, offset: 0x2F766, size: 0x8, addend: 0x0, symName: __ZNSt3__16vectorIdNS_9allocatorIdEEEixB8ue170006Em, symObjAddr: 0x498, symBinAddr: 0x10000C684, symSize: 0x24 }
  - { offsetInCU: 0xB663, offset: 0x2F88C, size: 0x8, addend: 0x0, symName: __ZN21CRRBinomialTreePricer10ModelSetupEdddd, symObjAddr: 0x4BC, symBinAddr: 0x10000C6A8, symSize: 0x138 }
  - { offsetInCU: 0xB7CD, offset: 0x2F9F6, size: 0x8, addend: 0x0, symName: __ZN22JRRNBinomialTreePricer10ModelSetupEdddd, symObjAddr: 0x5F4, symBinAddr: 0x10000C7E0, symSize: 0xF0 }
  - { offsetInCU: 0xB82C, offset: 0x2FA55, size: 0x8, addend: 0x0, symName: __ZN6Pricer9PriceTreeERK6MarketRK11TreeProduct, symObjAddr: 0x6E4, symBinAddr: 0x10000C8D0, symSize: 0x1C }
  - { offsetInCU: 0xB86C, offset: 0x2FA95, size: 0x8, addend: 0x0, symName: __ZNK21CRRBinomialTreePricer7GetSpotEii, symObjAddr: 0x700, symBinAddr: 0x10000C8EC, symSize: 0x58 }
  - { offsetInCU: 0xB8AC, offset: 0x2FAD5, size: 0x8, addend: 0x0, symName: __ZNK21CRRBinomialTreePricer9GetProbUpEv, symObjAddr: 0x758, symBinAddr: 0x10000C944, symSize: 0x18 }
  - { offsetInCU: 0xB8D0, offset: 0x2FAF9, size: 0x8, addend: 0x0, symName: __ZNK21CRRBinomialTreePricer11GetProbDownEv, symObjAddr: 0x770, symBinAddr: 0x10000C95C, symSize: 0x20 }
  - { offsetInCU: 0xB8F4, offset: 0x2FB1D, size: 0x8, addend: 0x0, symName: __ZNK22JRRNBinomialTreePricer7GetSpotEii, symObjAddr: 0x790, symBinAddr: 0x10000C97C, symSize: 0x74 }
  - { offsetInCU: 0xB934, offset: 0x2FB5D, size: 0x8, addend: 0x0, symName: __ZNK22JRRNBinomialTreePricer9GetProbUpEv, symObjAddr: 0x804, symBinAddr: 0x10000C9F0, symSize: 0x18 }
  - { offsetInCU: 0xB958, offset: 0x2FB81, size: 0x8, addend: 0x0, symName: __ZNK22JRRNBinomialTreePricer11GetProbDownEv, symObjAddr: 0x81C, symBinAddr: 0x10000CA08, symSize: 0x20 }
  - { offsetInCU: 0x1556B, offset: 0x45133, size: 0x8, addend: 0x0, symName: __ZNSt3__17getlineB8ue170006IcNS_11char_traitsIcEENS_9allocatorIcEEEERNS_13basic_istreamIT_T0_EES9_RNS_12basic_stringIS6_S7_T1_EE, symObjAddr: 0x4B4, symBinAddr: 0x10000CF14, symSize: 0x5C }
  - { offsetInCU: 0x155CE, offset: 0x45196, size: 0x8, addend: 0x0, symName: __ZNSt3__1neB8ue170006IPP5TradeEEbRKNS_11__wrap_iterIT_EES8_, symObjAddr: 0xB80, symBinAddr: 0x10000D5E0, symSize: 0x34 }
  - { offsetInCU: 0x1571B, offset: 0x452E3, size: 0x8, addend: 0x0, symName: __ZNSt3__1eqB8ue170006IPP5TradeEEbRKNS_11__wrap_iterIT_EES8_, symObjAddr: 0x4878, symBinAddr: 0x10000F60C, symSize: 0x48 }
  - { offsetInCU: 0x15820, offset: 0x453E8, size: 0x8, addend: 0x0, symName: __ZNSt3__17launderB8ue170006INS_4pairIKNS_12basic_stringIcNS_11char_traitsIcEENS_9allocatorIcEEEEdEEEEPT_SB_, symObjAddr: 0x4CDC, symBinAddr: 0x10000FA70, symSize: 0x24 }
  - { offsetInCU: 0x15857, offset: 0x4541F, size: 0x8, addend: 0x0, symName: __ZNSt3__19__launderB8ue170006INS_4pairIKNS_12basic_stringIcNS_11char_traitsIcEENS_9allocatorIcEEEEdEEEEPT_SB_, symObjAddr: 0x4D00, symBinAddr: 0x10000FA94, symSize: 0x14 }
  - { offsetInCU: 0x1588F, offset: 0x45457, size: 0x8, addend: 0x0, symName: __ZNSt3__17launderB8ue170006INS_4pairIKNS_12basic_stringIcNS_11char_traitsIcEENS_9allocatorIcEEEE8VolCurveEEEEPT_SC_, symObjAddr: 0x5F78, symBinAddr: 0x10001022C, symSize: 0x24 }
  - { offsetInCU: 0x158C6, offset: 0x4548E, size: 0x8, addend: 0x0, symName: __ZNSt3__19__launderB8ue170006INS_4pairIKNS_12basic_stringIcNS_11char_traitsIcEENS_9allocatorIcEEEE8VolCurveEEEEPT_SC_, symObjAddr: 0x5F9C, symBinAddr: 0x100010250, symSize: 0x14 }
  - { offsetInCU: 0x158FE, offset: 0x454C6, size: 0x8, addend: 0x0, symName: __ZNSt3__17getlineB8ue170006IcNS_11char_traitsIcEENS_9allocatorIcEEEERNS_13basic_istreamIT_T0_EES9_RNS_12basic_stringIS6_S7_T1_EES6_, symObjAddr: 0x668C, symBinAddr: 0x10001073C, symSize: 0x238 }
  - { offsetInCU: 0x15BA9, offset: 0x45771, size: 0x8, addend: 0x0, symName: __ZNSt3__112__to_addressB8ue170006IP5TradeEEPT_S4_, symObjAddr: 0x7450, symBinAddr: 0x1000112A0, symSize: 0x14 }
  - { offsetInCU: 0x15BDE, offset: 0x457A6, size: 0x8, addend: 0x0, symName: __ZNSt3__119__allocate_at_leastB8ue170006INS_9allocatorIP5TradeEEEENS_19__allocation_resultINS_16allocator_traitsIT_E7pointerEEERS7_m, symObjAddr: 0x7D08, symBinAddr: 0x100011B58, symSize: 0x40 }
  - { offsetInCU: 0x15C21, offset: 0x457E9, size: 0x8, addend: 0x0, symName: __ZNSt3__142__uninitialized_allocator_move_if_noexceptB8ue170006INS_9allocatorIP5TradeEENS_16reverse_iteratorIPS3_EES7_S3_vEET1_RT_T0_SB_S8_, symObjAddr: 0x7EBC, symBinAddr: 0x100011D0C, symSize: 0x78 }
  - { offsetInCU: 0x15CA0, offset: 0x45868, size: 0x8, addend: 0x0, symName: __ZNSt3__14swapB8ue170006IPP5TradeEENS_9enable_ifIXaasr21is_move_constructibleIT_EE5valuesr18is_move_assignableIS5_EE5valueEvE4typeERS5_S8_, symObjAddr: 0x7F80, symBinAddr: 0x100011DD0, symSize: 0x3C }
  - { offsetInCU: 0x15CF1, offset: 0x458B9, size: 0x8, addend: 0x0, symName: __ZNSt3__14moveB8ue170006INS_16reverse_iteratorIPP5TradeEES5_EET0_T_S7_S6_, symObjAddr: 0x8068, symBinAddr: 0x100011EB8, symSize: 0x78 }
  - { offsetInCU: 0x15D4B, offset: 0x45913, size: 0x8, addend: 0x0, symName: __ZNSt3__16__moveB8ue170006INS_17_ClassicAlgPolicyENS_16reverse_iteratorIPP5TradeEES6_S6_EENS_4pairIT0_T2_EES8_T1_S9_, symObjAddr: 0x80E0, symBinAddr: 0x100011F30, symSize: 0x64 }
  - { offsetInCU: 0x15DB7, offset: 0x4597F, size: 0x8, addend: 0x0, symName: __ZNSt3__123__dispatch_copy_or_moveB8ue170006INS_17_ClassicAlgPolicyENS_11__move_loopIS1_EENS_14__move_trivialENS_16reverse_iteratorIPP5TradeEES9_S9_EENS_4pairIT2_T4_EESB_T3_SC_, symObjAddr: 0x8144, symBinAddr: 0x100011F94, symSize: 0x64 }
  - { offsetInCU: 0x15E35, offset: 0x459FD, size: 0x8, addend: 0x0, symName: __ZNSt3__121__unwrap_and_dispatchB8ue170006INS_10__overloadINS_11__move_loopINS_17_ClassicAlgPolicyEEENS_14__move_trivialEEENS_16reverse_iteratorIPP5TradeEESB_SB_Li0EEENS_4pairIT0_T2_EESD_T1_SE_, symObjAddr: 0x81A8, symBinAddr: 0x100011FF8, symSize: 0x12C }
  - { offsetInCU: 0x15EC6, offset: 0x45A8E, size: 0x8, addend: 0x0, symName: __ZNSt3__114__unwrap_rangeB8ue170006INS_16reverse_iteratorIPP5TradeEES5_EENS_4pairIT0_S7_EET_S9_, symObjAddr: 0x82D4, symBinAddr: 0x100012124, symSize: 0x84 }
  - { offsetInCU: 0x15FE7, offset: 0x45BAF, size: 0x8, addend: 0x0, symName: __ZNSt3__113__unwrap_iterB8ue170006INS_16reverse_iteratorIPP5TradeEENS_18__unwrap_iter_implIS5_Lb0EEELi0EEEDTclsrT0_8__unwrapclsr3stdE7declvalIT_EEEES9_, symObjAddr: 0x83F8, symBinAddr: 0x100012248, symSize: 0x44 }
  - { offsetInCU: 0x1602C, offset: 0x45BF4, size: 0x8, addend: 0x0, symName: __ZNSt3__19make_pairB8ue170006INS_16reverse_iteratorIPP5TradeEES5_EENS_4pairINS_18__unwrap_ref_decayIT_E4typeENS7_IT0_E4typeEEEOS8_OSB_, symObjAddr: 0x843C, symBinAddr: 0x10001228C, symSize: 0x38 }
  - { offsetInCU: 0x1607B, offset: 0x45C43, size: 0x8, addend: 0x0, symName: __ZNSt3__114__rewrap_rangeB8ue170006INS_16reverse_iteratorIPP5TradeEES5_EET_S6_T0_, symObjAddr: 0x8474, symBinAddr: 0x1000122C4, symSize: 0x5C }
  - { offsetInCU: 0x160C7, offset: 0x45C8F, size: 0x8, addend: 0x0, symName: __ZNSt3__113__rewrap_iterB8ue170006INS_16reverse_iteratorIPP5TradeEES5_NS_18__unwrap_iter_implIS5_Lb0EEEEET_S8_T0_, symObjAddr: 0x84D0, symBinAddr: 0x100012320, symSize: 0x74 }
  - { offsetInCU: 0x1611C, offset: 0x45CE4, size: 0x8, addend: 0x0, symName: __ZNSt3__1neB8ue170006IPP5TradeS3_EEbRKNS_16reverse_iteratorIT_EERKNS4_IT0_EE, symObjAddr: 0x8544, symBinAddr: 0x100012394, symSize: 0x48 }
  - { offsetInCU: 0x179CE, offset: 0x47596, size: 0x8, addend: 0x0, symName: __ZNSt3__16vectorIP5TradeNS_9allocatorIS2_EEE26__swap_out_circular_bufferERNS_14__split_bufferIS2_RS4_EE, symObjAddr: 0x79A8, symBinAddr: 0x1000117F8, symSize: 0x110 }
  - { offsetInCU: 0x197E2, offset: 0x493AA, size: 0x8, addend: 0x0, symName: __ZN6PAYOFF13VanillaOptionE10OptionTypedd, symObjAddr: 0x0, symBinAddr: 0x10000CA60, symSize: 0x160 }
  - { offsetInCU: 0x1982A, offset: 0x493F2, size: 0x8, addend: 0x0, symName: __ZN6PAYOFF10CallSpreadEddd, symObjAddr: 0x170, symBinAddr: 0x10000CBD0, symSize: 0x88 }
  - { offsetInCU: 0x19874, offset: 0x4943C, size: 0x8, addend: 0x0, symName: __Z12readFromFileRKNSt3__112basic_stringIcNS_11char_traitsIcEENS_9allocatorIcEEEERS5_, symObjAddr: 0x1F8, symBinAddr: 0x10000CC58, symSize: 0x124 }
  - { offsetInCU: 0x198C9, offset: 0x49491, size: 0x8, addend: 0x0, symName: __ZNSt3__112basic_stringIcNS_11char_traitsIcEENS_9allocatorIcEEEC1B8ue170006Ev, symObjAddr: 0x31C, symBinAddr: 0x10000CD7C, symSize: 0x2C }
  - { offsetInCU: 0x19A03, offset: 0x495CB, size: 0x8, addend: 0x0, symName: __ZNSt3__114basic_ifstreamIcNS_11char_traitsIcEEEC1ERKNS_12basic_stringIcS2_NS_9allocatorIcEEEEj, symObjAddr: 0x348, symBinAddr: 0x10000CDA8, symSize: 0x16C }
  - { offsetInCU: 0x19A4C, offset: 0x49614, size: 0x8, addend: 0x0, symName: __ZNKSt3__19basic_iosIcNS_11char_traitsIcEEEcvbB8ue170006Ev, symObjAddr: 0x510, symBinAddr: 0x10000CF70, symSize: 0x2C }
  - { offsetInCU: 0x19A70, offset: 0x49638, size: 0x8, addend: 0x0, symName: __ZNSt3__112basic_stringIcNS_11char_traitsIcEENS_9allocatorIcEEE6appendB8ue170006ERKS5_, symObjAddr: 0x53C, symBinAddr: 0x10000CF9C, symSize: 0x4C }
  - { offsetInCU: 0x19AA3, offset: 0x4966B, size: 0x8, addend: 0x0, symName: __ZNSt3__114basic_ifstreamIcNS_11char_traitsIcEEE5closeEv, symObjAddr: 0x588, symBinAddr: 0x10000CFE8, symSize: 0x58 }
  - { offsetInCU: 0x19ACE, offset: 0x49696, size: 0x8, addend: 0x0, symName: __ZNSt3__114basic_ifstreamIcNS_11char_traitsIcEEED1Ev, symObjAddr: 0x5E0, symBinAddr: 0x10000D040, symSize: 0x40 }
  - { offsetInCU: 0x19AFA, offset: 0x496C2, size: 0x8, addend: 0x0, symName: _main, symObjAddr: 0x620, symBinAddr: 0x10000D080, symSize: 0x2C0 }
  - { offsetInCU: 0x19BF2, offset: 0x497BA, size: 0x8, addend: 0x0, symName: __ZN4DateC1Ev, symObjAddr: 0x8E0, symBinAddr: 0x10000D340, symSize: 0x2C }
  - { offsetInCU: 0x19C1A, offset: 0x497E2, size: 0x8, addend: 0x0, symName: __ZN6MarketC1ERK4Date, symObjAddr: 0x90C, symBinAddr: 0x10000D36C, symSize: 0x34 }
  - { offsetInCU: 0x19C50, offset: 0x49818, size: 0x8, addend: 0x0, symName: __ZNSt3__16vectorIP5TradeNS_9allocatorIS2_EEEC1B8ue170006Ev, symObjAddr: 0x940, symBinAddr: 0x10000D3A0, symSize: 0x2C }
  - { offsetInCU: 0x19C78, offset: 0x49840, size: 0x8, addend: 0x0, symName: __ZN4DateC1Eiii, symObjAddr: 0x96C, symBinAddr: 0x10000D3CC, symSize: 0x44 }
  - { offsetInCU: 0x19D79, offset: 0x49941, size: 0x8, addend: 0x0, symName: __ZN4BondC1E4DateS0_dd, symObjAddr: 0x9B0, symBinAddr: 0x10000D410, symSize: 0xD0 }
  - { offsetInCU: 0x19DD9, offset: 0x499A1, size: 0x8, addend: 0x0, symName: __ZNSt3__16vectorIP5TradeNS_9allocatorIS2_EEE9push_backB8ue170006ERKS2_, symObjAddr: 0xA80, symBinAddr: 0x10000D4E0, symSize: 0x6C }
  - { offsetInCU: 0x19FA6, offset: 0x49B6E, size: 0x8, addend: 0x0, symName: __ZN21CRRBinomialTreePricerC1Ei, symObjAddr: 0xAEC, symBinAddr: 0x10000D54C, symSize: 0x34 }
  - { offsetInCU: 0x19FDC, offset: 0x49BA4, size: 0x8, addend: 0x0, symName: __ZNSt3__16vectorIP5TradeNS_9allocatorIS2_EEE5beginB8ue170006Ev, symObjAddr: 0xB20, symBinAddr: 0x10000D580, symSize: 0x30 }
  - { offsetInCU: 0x1A002, offset: 0x49BCA, size: 0x8, addend: 0x0, symName: __ZNSt3__16vectorIP5TradeNS_9allocatorIS2_EEE3endB8ue170006Ev, symObjAddr: 0xB50, symBinAddr: 0x10000D5B0, symSize: 0x30 }
  - { offsetInCU: 0x1A028, offset: 0x49BF0, size: 0x8, addend: 0x0, symName: __ZNKSt3__111__wrap_iterIPP5TradeEdeB8ue170006Ev, symObjAddr: 0xBB4, symBinAddr: 0x10000D614, symSize: 0x18 }
  - { offsetInCU: 0x1A04C, offset: 0x49C14, size: 0x8, addend: 0x0, symName: __ZNSt3__111__wrap_iterIPP5TradeEppB8ue170006Ev, symObjAddr: 0xBCC, symBinAddr: 0x10000D62C, symSize: 0x20 }
  - { offsetInCU: 0x1A070, offset: 0x49C38, size: 0x8, addend: 0x0, symName: __ZNSt3__16vectorIP5TradeNS_9allocatorIS2_EEED1B8ue170006Ev, symObjAddr: 0xCB8, symBinAddr: 0x10000D64C, symSize: 0x2C }
  - { offsetInCU: 0x1A098, offset: 0x49C60, size: 0x8, addend: 0x0, symName: __ZN6MarketD1Ev, symObjAddr: 0xCE4, symBinAddr: 0x10000D678, symSize: 0x2C }
  - { offsetInCU: 0x1A0C3, offset: 0x49C8B, size: 0x8, addend: 0x0, symName: __ZNSt3__114basic_ifstreamIcNS_11char_traitsIcEEED2Ev, symObjAddr: 0xD10, symBinAddr: 0x10000D6A4, symSize: 0x64 }
  - { offsetInCU: 0x1A0FB, offset: 0x49CC3, size: 0x8, addend: 0x0, symName: __ZTv0_n24_NSt3__114basic_ifstreamIcNS_11char_traitsIcEEED1Ev, symObjAddr: 0xD74, symBinAddr: 0x10000D708, symSize: 0x28 }
  - { offsetInCU: 0x1A112, offset: 0x49CDA, size: 0x8, addend: 0x0, symName: __ZN4DateC2Ev, symObjAddr: 0xD9C, symBinAddr: 0x10000D730, symSize: 0x14 }
  - { offsetInCU: 0x1A13A, offset: 0x49D02, size: 0x8, addend: 0x0, symName: __ZN6MarketC2ERK4Date, symObjAddr: 0xDB0, symBinAddr: 0x10000D744, symSize: 0x6C }
  - { offsetInCU: 0x1A170, offset: 0x49D38, size: 0x8, addend: 0x0, symName: __ZNSt3__113unordered_mapINS_12basic_stringIcNS_11char_traitsIcEENS_9allocatorIcEEEE8VolCurveNS_4hashIS6_EENS_8equal_toIS6_EENS4_INS_4pairIKS6_S7_EEEEEC1B8ue170006Ev, symObjAddr: 0xE1C, symBinAddr: 0x10000D7B0, symSize: 0x2C }
  - { offsetInCU: 0x1A198, offset: 0x49D60, size: 0x8, addend: 0x0, symName: __ZNSt3__113unordered_mapINS_12basic_stringIcNS_11char_traitsIcEENS_9allocatorIcEEEE9RateCurveNS_4hashIS6_EENS_8equal_toIS6_EENS4_INS_4pairIKS6_S7_EEEEEC1B8ue170006Ev, symObjAddr: 0xE48, symBinAddr: 0x10000D7DC, symSize: 0x2C }
  - { offsetInCU: 0x1A1C0, offset: 0x49D88, size: 0x8, addend: 0x0, symName: __ZNSt3__113unordered_mapINS_12basic_stringIcNS_11char_traitsIcEENS_9allocatorIcEEEEdNS_4hashIS6_EENS_8equal_toIS6_EENS4_INS_4pairIKS6_dEEEEEC1B8ue170006Ev, symObjAddr: 0xE74, symBinAddr: 0x10000D808, symSize: 0x2C }
  - { offsetInCU: 0x1A1E8, offset: 0x49DB0, size: 0x8, addend: 0x0, symName: __ZNSt3__113unordered_mapINS_12basic_stringIcNS_11char_traitsIcEENS_9allocatorIcEEEE8VolCurveNS_4hashIS6_EENS_8equal_toIS6_EENS4_INS_4pairIKS6_S7_EEEEEC2B8ue170006Ev, symObjAddr: 0xEA0, symBinAddr: 0x10000D834, symSize: 0x2C }
  - { offsetInCU: 0x1A210, offset: 0x49DD8, size: 0x8, addend: 0x0, symName: __ZNSt3__112__hash_tableINS_17__hash_value_typeINS_12basic_stringIcNS_11char_traitsIcEENS_9allocatorIcEEEE8VolCurveEENS_22__unordered_map_hasherIS7_S9_NS_4hashIS7_EENS_8equal_toIS7_EELb1EEENS_21__unordered_map_equalIS7_S9_SE_SC_Lb1EEENS5_IS9_EEEC1Ev, symObjAddr: 0xECC, symBinAddr: 0x10000D860, symSize: 0x2C }
  - { offsetInCU: 0x1A23B, offset: 0x49E03, size: 0x8, addend: 0x0, symName: __ZNSt3__112__hash_tableINS_17__hash_value_typeINS_12basic_stringIcNS_11char_traitsIcEENS_9allocatorIcEEEE8VolCurveEENS_22__unordered_map_hasherIS7_S9_NS_4hashIS7_EENS_8equal_toIS7_EELb1EEENS_21__unordered_map_equalIS7_S9_SE_SC_Lb1EEENS5_IS9_EEEC2Ev, symObjAddr: 0xEF8, symBinAddr: 0x10000D88C, symSize: 0x7C }
  - { offsetInCU: 0x1A266, offset: 0x49E2E, size: 0x8, addend: 0x0, symName: __ZNSt3__110unique_ptrIA_PNS_16__hash_node_baseIPNS_11__hash_nodeINS_17__hash_value_typeINS_12basic_stringIcNS_11char_traitsIcEENS_9allocatorIcEEEE8VolCurveEEPvEEEENS_25__bucket_list_deallocatorINS7_ISG_EEEEEC1B8ue170006ILb1EvEEv, symObjAddr: 0xF74, symBinAddr: 0x10000D908, symSize: 0x2C }
  - { offsetInCU: 0x1A29A, offset: 0x49E62, size: 0x8, addend: 0x0, symName: __ZNSt3__117__compressed_pairINS_16__hash_node_baseIPNS_11__hash_nodeINS_17__hash_value_typeINS_12basic_stringIcNS_11char_traitsIcEENS_9allocatorIcEEEE8VolCurveEEPvEEEENS7_ISD_EEEC1B8ue170006ILb1EvEEv, symObjAddr: 0xFA0, symBinAddr: 0x10000D934, symSize: 0x2C }
  - { offsetInCU: 0x1A2D8, offset: 0x49EA0, size: 0x8, addend: 0x0, symName: __ZNSt3__117__compressed_pairImNS_22__unordered_map_hasherINS_12basic_stringIcNS_11char_traitsIcEENS_9allocatorIcEEEENS_17__hash_value_typeIS7_8VolCurveEENS_4hashIS7_EENS_8equal_toIS7_EELb1EEEEC1B8ue170006IiNS_18__default_init_tagEEEOT_OT0_, symObjAddr: 0xFD8, symBinAddr: 0x10000D960, symSize: 0x3C }
  - { offsetInCU: 0x1A333, offset: 0x49EFB, size: 0x8, addend: 0x0, symName: __ZNSt3__117__compressed_pairIfNS_21__unordered_map_equalINS_12basic_stringIcNS_11char_traitsIcEENS_9allocatorIcEEEENS_17__hash_value_typeIS7_8VolCurveEENS_8equal_toIS7_EENS_4hashIS7_EELb1EEEEC1B8ue170006IfNS_18__default_init_tagEEEOT_OT0_, symObjAddr: 0x1014, symBinAddr: 0x10000D99C, symSize: 0x3C }
  - { offsetInCU: 0x1A389, offset: 0x49F51, size: 0x8, addend: 0x0, symName: __ZNSt3__110unique_ptrIA_PNS_16__hash_node_baseIPNS_11__hash_nodeINS_17__hash_value_typeINS_12basic_stringIcNS_11char_traitsIcEENS_9allocatorIcEEEE8VolCurveEEPvEEEENS_25__bucket_list_deallocatorINS7_ISG_EEEEEC2B8ue170006ILb1EvEEv, symObjAddr: 0x1050, symBinAddr: 0x10000D9D8, symSize: 0x3C }
  - { offsetInCU: 0x1A3C2, offset: 0x49F8A, size: 0x8, addend: 0x0, symName: __ZNSt3__117__compressed_pairIPPNS_16__hash_node_baseIPNS_11__hash_nodeINS_17__hash_value_typeINS_12basic_stringIcNS_11char_traitsIcEENS_9allocatorIcEEEE8VolCurveEEPvEEEENS_25__bucket_list_deallocatorINS7_ISG_EEEEEC1B8ue170006INS_16__value_init_tagESN_EEOT_OT0_, symObjAddr: 0x108C, symBinAddr: 0x10000DA14, symSize: 0x3C }
  - { offsetInCU: 0x1A418, offset: 0x49FE0, size: 0x8, addend: 0x0, symName: __ZNSt3__117__compressed_pairIPPNS_16__hash_node_baseIPNS_11__hash_nodeINS_17__hash_value_typeINS_12basic_stringIcNS_11char_traitsIcEENS_9allocatorIcEEEE8VolCurveEEPvEEEENS_25__bucket_list_deallocatorINS7_ISG_EEEEEC2B8ue170006INS_16__value_init_tagESN_EEOT_OT0_, symObjAddr: 0x10C8, symBinAddr: 0x10000DA50, symSize: 0x40 }
  - { offsetInCU: 0x1A46E, offset: 0x4A036, size: 0x8, addend: 0x0, symName: __ZNSt3__122__compressed_pair_elemIPPNS_16__hash_node_baseIPNS_11__hash_nodeINS_17__hash_value_typeINS_12basic_stringIcNS_11char_traitsIcEENS_9allocatorIcEEEE8VolCurveEEPvEEEELi0ELb0EEC2B8ue170006ENS_16__value_init_tagE, symObjAddr: 0x1108, symBinAddr: 0x10000DA90, symSize: 0x18 }
  - { offsetInCU: 0x1A4A0, offset: 0x4A068, size: 0x8, addend: 0x0, symName: __ZNSt3__122__compressed_pair_elemINS_25__bucket_list_deallocatorINS_9allocatorIPNS_16__hash_node_baseIPNS_11__hash_nodeINS_17__hash_value_typeINS_12basic_stringIcNS_11char_traitsIcEENS2_IcEEEE8VolCurveEEPvEEEEEEEELi1ELb0EEC2B8ue170006ENS_16__value_init_tagE, symObjAddr: 0x1120, symBinAddr: 0x10000DAA8, symSize: 0x2C }
  - { offsetInCU: 0x1A4D2, offset: 0x4A09A, size: 0x8, addend: 0x0, symName: __ZNSt3__125__bucket_list_deallocatorINS_9allocatorIPNS_16__hash_node_baseIPNS_11__hash_nodeINS_17__hash_value_typeINS_12basic_stringIcNS_11char_traitsIcEENS1_IcEEEE8VolCurveEEPvEEEEEEEC1B8ue170006Ev, symObjAddr: 0x114C, symBinAddr: 0x10000DAD4, symSize: 0x2C }
  - { offsetInCU: 0x1A4FA, offset: 0x4A0C2, size: 0x8, addend: 0x0, symName: __ZNSt3__125__bucket_list_deallocatorINS_9allocatorIPNS_16__hash_node_baseIPNS_11__hash_nodeINS_17__hash_value_typeINS_12basic_stringIcNS_11char_traitsIcEENS1_IcEEEE8VolCurveEEPvEEEEEEEC2B8ue170006Ev, symObjAddr: 0x1178, symBinAddr: 0x10000DB00, symSize: 0x40 }
  - { offsetInCU: 0x1A522, offset: 0x4A0EA, size: 0x8, addend: 0x0, symName: __ZNSt3__117__compressed_pairImNS_9allocatorIPNS_16__hash_node_baseIPNS_11__hash_nodeINS_17__hash_value_typeINS_12basic_stringIcNS_11char_traitsIcEENS1_IcEEEE8VolCurveEEPvEEEEEEEC1B8ue170006IiNS_18__default_init_tagEEEOT_OT0_, symObjAddr: 0x11B8, symBinAddr: 0x10000DB40, symSize: 0x3C }
  - { offsetInCU: 0x1A578, offset: 0x4A140, size: 0x8, addend: 0x0, symName: __ZNSt3__117__compressed_pairImNS_9allocatorIPNS_16__hash_node_baseIPNS_11__hash_nodeINS_17__hash_value_typeINS_12basic_stringIcNS_11char_traitsIcEENS1_IcEEEE8VolCurveEEPvEEEEEEEC2B8ue170006IiNS_18__default_init_tagEEEOT_OT0_, symObjAddr: 0x11F4, symBinAddr: 0x10000DB7C, symSize: 0x40 }
  - { offsetInCU: 0x1A5CE, offset: 0x4A196, size: 0x8, addend: 0x0, symName: __ZNSt3__122__compressed_pair_elemImLi0ELb0EEC2B8ue170006IivEEOT_, symObjAddr: 0x1234, symBinAddr: 0x10000DBBC, symSize: 0x24 }
  - { offsetInCU: 0x1A60F, offset: 0x4A1D7, size: 0x8, addend: 0x0, symName: __ZNSt3__122__compressed_pair_elemINS_9allocatorIPNS_16__hash_node_baseIPNS_11__hash_nodeINS_17__hash_value_typeINS_12basic_stringIcNS_11char_traitsIcEENS1_IcEEEE8VolCurveEEPvEEEEEELi1ELb1EEC2B8ue170006ENS_18__default_init_tagE, symObjAddr: 0x1258, symBinAddr: 0x10000DBE0, symSize: 0x2C }
  - { offsetInCU: 0x1A641, offset: 0x4A209, size: 0x8, addend: 0x0, symName: __ZNSt3__19allocatorIPNS_16__hash_node_baseIPNS_11__hash_nodeINS_17__hash_value_typeINS_12basic_stringIcNS_11char_traitsIcEENS0_IcEEEE8VolCurveEEPvEEEEEC2B8ue170006Ev, symObjAddr: 0x1284, symBinAddr: 0x10000DC0C, symSize: 0x2C }
  - { offsetInCU: 0x1A669, offset: 0x4A231, size: 0x8, addend: 0x0, symName: __ZNSt3__116__non_trivial_ifILb1ENS_9allocatorIPNS_16__hash_node_baseIPNS_11__hash_nodeINS_17__hash_value_typeINS_12basic_stringIcNS_11char_traitsIcEENS1_IcEEEE8VolCurveEEPvEEEEEEEC2B8ue170006Ev, symObjAddr: 0x12B0, symBinAddr: 0x10000DC38, symSize: 0x14 }
  - { offsetInCU: 0x1A691, offset: 0x4A259, size: 0x8, addend: 0x0, symName: __ZNSt3__117__compressed_pairINS_16__hash_node_baseIPNS_11__hash_nodeINS_17__hash_value_typeINS_12basic_stringIcNS_11char_traitsIcEENS_9allocatorIcEEEE8VolCurveEEPvEEEENS7_ISD_EEEC2B8ue170006ILb1EvEEv, symObjAddr: 0x12C4, symBinAddr: 0x10000DC4C, symSize: 0x34 }
  - { offsetInCU: 0x1A6C5, offset: 0x4A28D, size: 0x8, addend: 0x0, symName: __ZNSt3__122__compressed_pair_elemINS_16__hash_node_baseIPNS_11__hash_nodeINS_17__hash_value_typeINS_12basic_stringIcNS_11char_traitsIcEENS_9allocatorIcEEEE8VolCurveEEPvEEEELi0ELb0EEC2B8ue170006ENS_16__value_init_tagE, symObjAddr: 0x12F8, symBinAddr: 0x10000DC80, symSize: 0x2C }
  - { offsetInCU: 0x1A6F7, offset: 0x4A2BF, size: 0x8, addend: 0x0, symName: __ZNSt3__122__compressed_pair_elemINS_9allocatorINS_11__hash_nodeINS_17__hash_value_typeINS_12basic_stringIcNS_11char_traitsIcEENS1_IcEEEE8VolCurveEEPvEEEELi1ELb1EEC2B8ue170006ENS_16__value_init_tagE, symObjAddr: 0x1324, symBinAddr: 0x10000DCAC, symSize: 0x2C }
  - { offsetInCU: 0x1A729, offset: 0x4A2F1, size: 0x8, addend: 0x0, symName: __ZNSt3__116__hash_node_baseIPNS_11__hash_nodeINS_17__hash_value_typeINS_12basic_stringIcNS_11char_traitsIcEENS_9allocatorIcEEEE8VolCurveEEPvEEEC1B8ue170006Ev, symObjAddr: 0x1350, symBinAddr: 0x10000DCD8, symSize: 0x2C }
  - { offsetInCU: 0x1A751, offset: 0x4A319, size: 0x8, addend: 0x0, symName: __ZNSt3__116__hash_node_baseIPNS_11__hash_nodeINS_17__hash_value_typeINS_12basic_stringIcNS_11char_traitsIcEENS_9allocatorIcEEEE8VolCurveEEPvEEEC2B8ue170006Ev, symObjAddr: 0x137C, symBinAddr: 0x10000DD04, symSize: 0x18 }
  - { offsetInCU: 0x1A779, offset: 0x4A341, size: 0x8, addend: 0x0, symName: __ZNSt3__19allocatorINS_11__hash_nodeINS_17__hash_value_typeINS_12basic_stringIcNS_11char_traitsIcEENS0_IcEEEE8VolCurveEEPvEEEC2B8ue170006Ev, symObjAddr: 0x1394, symBinAddr: 0x10000DD1C, symSize: 0x2C }
  - { offsetInCU: 0x1A7A1, offset: 0x4A369, size: 0x8, addend: 0x0, symName: __ZNSt3__116__non_trivial_ifILb1ENS_9allocatorINS_11__hash_nodeINS_17__hash_value_typeINS_12basic_stringIcNS_11char_traitsIcEENS1_IcEEEE8VolCurveEEPvEEEEEC2B8ue170006Ev, symObjAddr: 0x13C0, symBinAddr: 0x10000DD48, symSize: 0x14 }
  - { offsetInCU: 0x1A7C9, offset: 0x4A391, size: 0x8, addend: 0x0, symName: __ZNSt3__117__compressed_pairImNS_22__unordered_map_hasherINS_12basic_stringIcNS_11char_traitsIcEENS_9allocatorIcEEEENS_17__hash_value_typeIS7_8VolCurveEENS_4hashIS7_EENS_8equal_toIS7_EELb1EEEEC2B8ue170006IiNS_18__default_init_tagEEEOT_OT0_, symObjAddr: 0x13D4, symBinAddr: 0x10000DD5C, symSize: 0x40 }
  - { offsetInCU: 0x1A81F, offset: 0x4A3E7, size: 0x8, addend: 0x0, symName: __ZNSt3__122__compressed_pair_elemINS_22__unordered_map_hasherINS_12basic_stringIcNS_11char_traitsIcEENS_9allocatorIcEEEENS_17__hash_value_typeIS7_8VolCurveEENS_4hashIS7_EENS_8equal_toIS7_EELb1EEELi1ELb1EEC2B8ue170006ENS_18__default_init_tagE, symObjAddr: 0x1414, symBinAddr: 0x10000DD9C, symSize: 0x2C }
  - { offsetInCU: 0x1A851, offset: 0x4A419, size: 0x8, addend: 0x0, symName: __ZNSt3__122__unordered_map_hasherINS_12basic_stringIcNS_11char_traitsIcEENS_9allocatorIcEEEENS_17__hash_value_typeIS6_8VolCurveEENS_4hashIS6_EENS_8equal_toIS6_EELb1EEC2B8ue170006Ev, symObjAddr: 0x1440, symBinAddr: 0x10000DDC8, symSize: 0x14 }
  - { offsetInCU: 0x1A879, offset: 0x4A441, size: 0x8, addend: 0x0, symName: __ZNSt3__117__compressed_pairIfNS_21__unordered_map_equalINS_12basic_stringIcNS_11char_traitsIcEENS_9allocatorIcEEEENS_17__hash_value_typeIS7_8VolCurveEENS_8equal_toIS7_EENS_4hashIS7_EELb1EEEEC2B8ue170006IfNS_18__default_init_tagEEEOT_OT0_, symObjAddr: 0x1454, symBinAddr: 0x10000DDDC, symSize: 0x40 }
  - { offsetInCU: 0x1A8CF, offset: 0x4A497, size: 0x8, addend: 0x0, symName: __ZNSt3__122__compressed_pair_elemIfLi0ELb0EEC2B8ue170006IfvEEOT_, symObjAddr: 0x1494, symBinAddr: 0x10000DE1C, symSize: 0x24 }
  - { offsetInCU: 0x1A910, offset: 0x4A4D8, size: 0x8, addend: 0x0, symName: __ZNSt3__122__compressed_pair_elemINS_21__unordered_map_equalINS_12basic_stringIcNS_11char_traitsIcEENS_9allocatorIcEEEENS_17__hash_value_typeIS7_8VolCurveEENS_8equal_toIS7_EENS_4hashIS7_EELb1EEELi1ELb1EEC2B8ue170006ENS_18__default_init_tagE, symObjAddr: 0x14B8, symBinAddr: 0x10000DE40, symSize: 0x2C }
  - { offsetInCU: 0x1A942, offset: 0x4A50A, size: 0x8, addend: 0x0, symName: __ZNSt3__121__unordered_map_equalINS_12basic_stringIcNS_11char_traitsIcEENS_9allocatorIcEEEENS_17__hash_value_typeIS6_8VolCurveEENS_8equal_toIS6_EENS_4hashIS6_EELb1EEC2B8ue170006Ev, symObjAddr: 0x14E4, symBinAddr: 0x10000DE6C, symSize: 0x14 }
  - { offsetInCU: 0x1A96A, offset: 0x4A532, size: 0x8, addend: 0x0, symName: __ZNSt3__113unordered_mapINS_12basic_stringIcNS_11char_traitsIcEENS_9allocatorIcEEEE9RateCurveNS_4hashIS6_EENS_8equal_toIS6_EENS4_INS_4pairIKS6_S7_EEEEEC2B8ue170006Ev, symObjAddr: 0x14F8, symBinAddr: 0x10000DE80, symSize: 0x2C }
  - { offsetInCU: 0x1A992, offset: 0x4A55A, size: 0x8, addend: 0x0, symName: __ZNSt3__112__hash_tableINS_17__hash_value_typeINS_12basic_stringIcNS_11char_traitsIcEENS_9allocatorIcEEEE9RateCurveEENS_22__unordered_map_hasherIS7_S9_NS_4hashIS7_EENS_8equal_toIS7_EELb1EEENS_21__unordered_map_equalIS7_S9_SE_SC_Lb1EEENS5_IS9_EEEC1Ev, symObjAddr: 0x1524, symBinAddr: 0x10000DEAC, symSize: 0x2C }
  - { offsetInCU: 0x1A9BD, offset: 0x4A585, size: 0x8, addend: 0x0, symName: __ZNSt3__112__hash_tableINS_17__hash_value_typeINS_12basic_stringIcNS_11char_traitsIcEENS_9allocatorIcEEEE9RateCurveEENS_22__unordered_map_hasherIS7_S9_NS_4hashIS7_EENS_8equal_toIS7_EELb1EEENS_21__unordered_map_equalIS7_S9_SE_SC_Lb1EEENS5_IS9_EEEC2Ev, symObjAddr: 0x1550, symBinAddr: 0x10000DED8, symSize: 0x7C }
  - { offsetInCU: 0x1A9E8, offset: 0x4A5B0, size: 0x8, addend: 0x0, symName: __ZNSt3__110unique_ptrIA_PNS_16__hash_node_baseIPNS_11__hash_nodeINS_17__hash_value_typeINS_12basic_stringIcNS_11char_traitsIcEENS_9allocatorIcEEEE9RateCurveEEPvEEEENS_25__bucket_list_deallocatorINS7_ISG_EEEEEC1B8ue170006ILb1EvEEv, symObjAddr: 0x15CC, symBinAddr: 0x10000DF54, symSize: 0x2C }
  - { offsetInCU: 0x1AA1C, offset: 0x4A5E4, size: 0x8, addend: 0x0, symName: __ZNSt3__117__compressed_pairINS_16__hash_node_baseIPNS_11__hash_nodeINS_17__hash_value_typeINS_12basic_stringIcNS_11char_traitsIcEENS_9allocatorIcEEEE9RateCurveEEPvEEEENS7_ISD_EEEC1B8ue170006ILb1EvEEv, symObjAddr: 0x15F8, symBinAddr: 0x10000DF80, symSize: 0x2C }
  - { offsetInCU: 0x1AA50, offset: 0x4A618, size: 0x8, addend: 0x0, symName: __ZNSt3__117__compressed_pairImNS_22__unordered_map_hasherINS_12basic_stringIcNS_11char_traitsIcEENS_9allocatorIcEEEENS_17__hash_value_typeIS7_9RateCurveEENS_4hashIS7_EENS_8equal_toIS7_EELb1EEEEC1B8ue170006IiNS_18__default_init_tagEEEOT_OT0_, symObjAddr: 0x1624, symBinAddr: 0x10000DFAC, symSize: 0x3C }
  - { offsetInCU: 0x1AAA6, offset: 0x4A66E, size: 0x8, addend: 0x0, symName: __ZNSt3__117__compressed_pairIfNS_21__unordered_map_equalINS_12basic_stringIcNS_11char_traitsIcEENS_9allocatorIcEEEENS_17__hash_value_typeIS7_9RateCurveEENS_8equal_toIS7_EENS_4hashIS7_EELb1EEEEC1B8ue170006IfNS_18__default_init_tagEEEOT_OT0_, symObjAddr: 0x1660, symBinAddr: 0x10000DFE8, symSize: 0x3C }
  - { offsetInCU: 0x1AAFC, offset: 0x4A6C4, size: 0x8, addend: 0x0, symName: __ZNSt3__110unique_ptrIA_PNS_16__hash_node_baseIPNS_11__hash_nodeINS_17__hash_value_typeINS_12basic_stringIcNS_11char_traitsIcEENS_9allocatorIcEEEE9RateCurveEEPvEEEENS_25__bucket_list_deallocatorINS7_ISG_EEEEEC2B8ue170006ILb1EvEEv, symObjAddr: 0x169C, symBinAddr: 0x10000E024, symSize: 0x3C }
  - { offsetInCU: 0x1AB30, offset: 0x4A6F8, size: 0x8, addend: 0x0, symName: __ZNSt3__117__compressed_pairIPPNS_16__hash_node_baseIPNS_11__hash_nodeINS_17__hash_value_typeINS_12basic_stringIcNS_11char_traitsIcEENS_9allocatorIcEEEE9RateCurveEEPvEEEENS_25__bucket_list_deallocatorINS7_ISG_EEEEEC1B8ue170006INS_16__value_init_tagESN_EEOT_OT0_, symObjAddr: 0x16D8, symBinAddr: 0x10000E060, symSize: 0x3C }
  - { offsetInCU: 0x1AB86, offset: 0x4A74E, size: 0x8, addend: 0x0, symName: __ZNSt3__117__compressed_pairIPPNS_16__hash_node_baseIPNS_11__hash_nodeINS_17__hash_value_typeINS_12basic_stringIcNS_11char_traitsIcEENS_9allocatorIcEEEE9RateCurveEEPvEEEENS_25__bucket_list_deallocatorINS7_ISG_EEEEEC2B8ue170006INS_16__value_init_tagESN_EEOT_OT0_, symObjAddr: 0x1714, symBinAddr: 0x10000E09C, symSize: 0x40 }
  - { offsetInCU: 0x1ABDC, offset: 0x4A7A4, size: 0x8, addend: 0x0, symName: __ZNSt3__122__compressed_pair_elemIPPNS_16__hash_node_baseIPNS_11__hash_nodeINS_17__hash_value_typeINS_12basic_stringIcNS_11char_traitsIcEENS_9allocatorIcEEEE9RateCurveEEPvEEEELi0ELb0EEC2B8ue170006ENS_16__value_init_tagE, symObjAddr: 0x1754, symBinAddr: 0x10000E0DC, symSize: 0x18 }
  - { offsetInCU: 0x1AC0E, offset: 0x4A7D6, size: 0x8, addend: 0x0, symName: __ZNSt3__122__compressed_pair_elemINS_25__bucket_list_deallocatorINS_9allocatorIPNS_16__hash_node_baseIPNS_11__hash_nodeINS_17__hash_value_typeINS_12basic_stringIcNS_11char_traitsIcEENS2_IcEEEE9RateCurveEEPvEEEEEEEELi1ELb0EEC2B8ue170006ENS_16__value_init_tagE, symObjAddr: 0x176C, symBinAddr: 0x10000E0F4, symSize: 0x2C }
  - { offsetInCU: 0x1AC40, offset: 0x4A808, size: 0x8, addend: 0x0, symName: __ZNSt3__125__bucket_list_deallocatorINS_9allocatorIPNS_16__hash_node_baseIPNS_11__hash_nodeINS_17__hash_value_typeINS_12basic_stringIcNS_11char_traitsIcEENS1_IcEEEE9RateCurveEEPvEEEEEEEC1B8ue170006Ev, symObjAddr: 0x1798, symBinAddr: 0x10000E120, symSize: 0x2C }
  - { offsetInCU: 0x1AC68, offset: 0x4A830, size: 0x8, addend: 0x0, symName: __ZNSt3__125__bucket_list_deallocatorINS_9allocatorIPNS_16__hash_node_baseIPNS_11__hash_nodeINS_17__hash_value_typeINS_12basic_stringIcNS_11char_traitsIcEENS1_IcEEEE9RateCurveEEPvEEEEEEEC2B8ue170006Ev, symObjAddr: 0x17C4, symBinAddr: 0x10000E14C, symSize: 0x40 }
  - { offsetInCU: 0x1AC90, offset: 0x4A858, size: 0x8, addend: 0x0, symName: __ZNSt3__117__compressed_pairImNS_9allocatorIPNS_16__hash_node_baseIPNS_11__hash_nodeINS_17__hash_value_typeINS_12basic_stringIcNS_11char_traitsIcEENS1_IcEEEE9RateCurveEEPvEEEEEEEC1B8ue170006IiNS_18__default_init_tagEEEOT_OT0_, symObjAddr: 0x1804, symBinAddr: 0x10000E18C, symSize: 0x3C }
  - { offsetInCU: 0x1ACE6, offset: 0x4A8AE, size: 0x8, addend: 0x0, symName: __ZNSt3__117__compressed_pairImNS_9allocatorIPNS_16__hash_node_baseIPNS_11__hash_nodeINS_17__hash_value_typeINS_12basic_stringIcNS_11char_traitsIcEENS1_IcEEEE9RateCurveEEPvEEEEEEEC2B8ue170006IiNS_18__default_init_tagEEEOT_OT0_, symObjAddr: 0x1840, symBinAddr: 0x10000E1C8, symSize: 0x40 }
  - { offsetInCU: 0x1AD3C, offset: 0x4A904, size: 0x8, addend: 0x0, symName: __ZNSt3__122__compressed_pair_elemINS_9allocatorIPNS_16__hash_node_baseIPNS_11__hash_nodeINS_17__hash_value_typeINS_12basic_stringIcNS_11char_traitsIcEENS1_IcEEEE9RateCurveEEPvEEEEEELi1ELb1EEC2B8ue170006ENS_18__default_init_tagE, symObjAddr: 0x1880, symBinAddr: 0x10000E208, symSize: 0x2C }
  - { offsetInCU: 0x1AD6E, offset: 0x4A936, size: 0x8, addend: 0x0, symName: __ZNSt3__19allocatorIPNS_16__hash_node_baseIPNS_11__hash_nodeINS_17__hash_value_typeINS_12basic_stringIcNS_11char_traitsIcEENS0_IcEEEE9RateCurveEEPvEEEEEC2B8ue170006Ev, symObjAddr: 0x18AC, symBinAddr: 0x10000E234, symSize: 0x2C }
  - { offsetInCU: 0x1AD96, offset: 0x4A95E, size: 0x8, addend: 0x0, symName: __ZNSt3__116__non_trivial_ifILb1ENS_9allocatorIPNS_16__hash_node_baseIPNS_11__hash_nodeINS_17__hash_value_typeINS_12basic_stringIcNS_11char_traitsIcEENS1_IcEEEE9RateCurveEEPvEEEEEEEC2B8ue170006Ev, symObjAddr: 0x18D8, symBinAddr: 0x10000E260, symSize: 0x14 }
  - { offsetInCU: 0x1ADBE, offset: 0x4A986, size: 0x8, addend: 0x0, symName: __ZNSt3__117__compressed_pairINS_16__hash_node_baseIPNS_11__hash_nodeINS_17__hash_value_typeINS_12basic_stringIcNS_11char_traitsIcEENS_9allocatorIcEEEE9RateCurveEEPvEEEENS7_ISD_EEEC2B8ue170006ILb1EvEEv, symObjAddr: 0x18EC, symBinAddr: 0x10000E274, symSize: 0x34 }
  - { offsetInCU: 0x1ADF2, offset: 0x4A9BA, size: 0x8, addend: 0x0, symName: __ZNSt3__122__compressed_pair_elemINS_16__hash_node_baseIPNS_11__hash_nodeINS_17__hash_value_typeINS_12basic_stringIcNS_11char_traitsIcEENS_9allocatorIcEEEE9RateCurveEEPvEEEELi0ELb0EEC2B8ue170006ENS_16__value_init_tagE, symObjAddr: 0x1920, symBinAddr: 0x10000E2A8, symSize: 0x2C }
  - { offsetInCU: 0x1AE24, offset: 0x4A9EC, size: 0x8, addend: 0x0, symName: __ZNSt3__122__compressed_pair_elemINS_9allocatorINS_11__hash_nodeINS_17__hash_value_typeINS_12basic_stringIcNS_11char_traitsIcEENS1_IcEEEE9RateCurveEEPvEEEELi1ELb1EEC2B8ue170006ENS_16__value_init_tagE, symObjAddr: 0x194C, symBinAddr: 0x10000E2D4, symSize: 0x2C }
  - { offsetInCU: 0x1AE56, offset: 0x4AA1E, size: 0x8, addend: 0x0, symName: __ZNSt3__116__hash_node_baseIPNS_11__hash_nodeINS_17__hash_value_typeINS_12basic_stringIcNS_11char_traitsIcEENS_9allocatorIcEEEE9RateCurveEEPvEEEC1B8ue170006Ev, symObjAddr: 0x1978, symBinAddr: 0x10000E300, symSize: 0x2C }
  - { offsetInCU: 0x1AE7E, offset: 0x4AA46, size: 0x8, addend: 0x0, symName: __ZNSt3__116__hash_node_baseIPNS_11__hash_nodeINS_17__hash_value_typeINS_12basic_stringIcNS_11char_traitsIcEENS_9allocatorIcEEEE9RateCurveEEPvEEEC2B8ue170006Ev, symObjAddr: 0x19A4, symBinAddr: 0x10000E32C, symSize: 0x18 }
  - { offsetInCU: 0x1AEA6, offset: 0x4AA6E, size: 0x8, addend: 0x0, symName: __ZNSt3__19allocatorINS_11__hash_nodeINS_17__hash_value_typeINS_12basic_stringIcNS_11char_traitsIcEENS0_IcEEEE9RateCurveEEPvEEEC2B8ue170006Ev, symObjAddr: 0x19BC, symBinAddr: 0x10000E344, symSize: 0x2C }
  - { offsetInCU: 0x1AECE, offset: 0x4AA96, size: 0x8, addend: 0x0, symName: __ZNSt3__116__non_trivial_ifILb1ENS_9allocatorINS_11__hash_nodeINS_17__hash_value_typeINS_12basic_stringIcNS_11char_traitsIcEENS1_IcEEEE9RateCurveEEPvEEEEEC2B8ue170006Ev, symObjAddr: 0x19E8, symBinAddr: 0x10000E370, symSize: 0x14 }
  - { offsetInCU: 0x1AEF6, offset: 0x4AABE, size: 0x8, addend: 0x0, symName: __ZNSt3__117__compressed_pairImNS_22__unordered_map_hasherINS_12basic_stringIcNS_11char_traitsIcEENS_9allocatorIcEEEENS_17__hash_value_typeIS7_9RateCurveEENS_4hashIS7_EENS_8equal_toIS7_EELb1EEEEC2B8ue170006IiNS_18__default_init_tagEEEOT_OT0_, symObjAddr: 0x19FC, symBinAddr: 0x10000E384, symSize: 0x40 }
  - { offsetInCU: 0x1AF4C, offset: 0x4AB14, size: 0x8, addend: 0x0, symName: __ZNSt3__122__compressed_pair_elemINS_22__unordered_map_hasherINS_12basic_stringIcNS_11char_traitsIcEENS_9allocatorIcEEEENS_17__hash_value_typeIS7_9RateCurveEENS_4hashIS7_EENS_8equal_toIS7_EELb1EEELi1ELb1EEC2B8ue170006ENS_18__default_init_tagE, symObjAddr: 0x1A3C, symBinAddr: 0x10000E3C4, symSize: 0x2C }
  - { offsetInCU: 0x1AF7E, offset: 0x4AB46, size: 0x8, addend: 0x0, symName: __ZNSt3__122__unordered_map_hasherINS_12basic_stringIcNS_11char_traitsIcEENS_9allocatorIcEEEENS_17__hash_value_typeIS6_9RateCurveEENS_4hashIS6_EENS_8equal_toIS6_EELb1EEC2B8ue170006Ev, symObjAddr: 0x1A68, symBinAddr: 0x10000E3F0, symSize: 0x14 }
  - { offsetInCU: 0x1AFA6, offset: 0x4AB6E, size: 0x8, addend: 0x0, symName: __ZNSt3__117__compressed_pairIfNS_21__unordered_map_equalINS_12basic_stringIcNS_11char_traitsIcEENS_9allocatorIcEEEENS_17__hash_value_typeIS7_9RateCurveEENS_8equal_toIS7_EENS_4hashIS7_EELb1EEEEC2B8ue170006IfNS_18__default_init_tagEEEOT_OT0_, symObjAddr: 0x1A7C, symBinAddr: 0x10000E404, symSize: 0x40 }
  - { offsetInCU: 0x1AFFC, offset: 0x4ABC4, size: 0x8, addend: 0x0, symName: __ZNSt3__122__compressed_pair_elemINS_21__unordered_map_equalINS_12basic_stringIcNS_11char_traitsIcEENS_9allocatorIcEEEENS_17__hash_value_typeIS7_9RateCurveEENS_8equal_toIS7_EENS_4hashIS7_EELb1EEELi1ELb1EEC2B8ue170006ENS_18__default_init_tagE, symObjAddr: 0x1ABC, symBinAddr: 0x10000E444, symSize: 0x2C }
  - { offsetInCU: 0x1B02E, offset: 0x4ABF6, size: 0x8, addend: 0x0, symName: __ZNSt3__121__unordered_map_equalINS_12basic_stringIcNS_11char_traitsIcEENS_9allocatorIcEEEENS_17__hash_value_typeIS6_9RateCurveEENS_8equal_toIS6_EENS_4hashIS6_EELb1EEC2B8ue170006Ev, symObjAddr: 0x1AE8, symBinAddr: 0x10000E470, symSize: 0x14 }
  - { offsetInCU: 0x1B056, offset: 0x4AC1E, size: 0x8, addend: 0x0, symName: __ZNSt3__113unordered_mapINS_12basic_stringIcNS_11char_traitsIcEENS_9allocatorIcEEEEdNS_4hashIS6_EENS_8equal_toIS6_EENS4_INS_4pairIKS6_dEEEEEC2B8ue170006Ev, symObjAddr: 0x1AFC, symBinAddr: 0x10000E484, symSize: 0x2C }
  - { offsetInCU: 0x1B07E, offset: 0x4AC46, size: 0x8, addend: 0x0, symName: __ZNSt3__112__hash_tableINS_17__hash_value_typeINS_12basic_stringIcNS_11char_traitsIcEENS_9allocatorIcEEEEdEENS_22__unordered_map_hasherIS7_S8_NS_4hashIS7_EENS_8equal_toIS7_EELb1EEENS_21__unordered_map_equalIS7_S8_SD_SB_Lb1EEENS5_IS8_EEEC1Ev, symObjAddr: 0x1B28, symBinAddr: 0x10000E4B0, symSize: 0x2C }
  - { offsetInCU: 0x1B0A9, offset: 0x4AC71, size: 0x8, addend: 0x0, symName: __ZNSt3__112__hash_tableINS_17__hash_value_typeINS_12basic_stringIcNS_11char_traitsIcEENS_9allocatorIcEEEEdEENS_22__unordered_map_hasherIS7_S8_NS_4hashIS7_EENS_8equal_toIS7_EELb1EEENS_21__unordered_map_equalIS7_S8_SD_SB_Lb1EEENS5_IS8_EEEC2Ev, symObjAddr: 0x1B54, symBinAddr: 0x10000E4DC, symSize: 0x7C }
  - { offsetInCU: 0x1B0D4, offset: 0x4AC9C, size: 0x8, addend: 0x0, symName: __ZNSt3__110unique_ptrIA_PNS_16__hash_node_baseIPNS_11__hash_nodeINS_17__hash_value_typeINS_12basic_stringIcNS_11char_traitsIcEENS_9allocatorIcEEEEdEEPvEEEENS_25__bucket_list_deallocatorINS7_ISF_EEEEEC1B8ue170006ILb1EvEEv, symObjAddr: 0x1BD0, symBinAddr: 0x10000E558, symSize: 0x2C }
  - { offsetInCU: 0x1B108, offset: 0x4ACD0, size: 0x8, addend: 0x0, symName: __ZNSt3__117__compressed_pairINS_16__hash_node_baseIPNS_11__hash_nodeINS_17__hash_value_typeINS_12basic_stringIcNS_11char_traitsIcEENS_9allocatorIcEEEEdEEPvEEEENS7_ISC_EEEC1B8ue170006ILb1EvEEv, symObjAddr: 0x1BFC, symBinAddr: 0x10000E584, symSize: 0x2C }
  - { offsetInCU: 0x1B13C, offset: 0x4AD04, size: 0x8, addend: 0x0, symName: __ZNSt3__117__compressed_pairImNS_22__unordered_map_hasherINS_12basic_stringIcNS_11char_traitsIcEENS_9allocatorIcEEEENS_17__hash_value_typeIS7_dEENS_4hashIS7_EENS_8equal_toIS7_EELb1EEEEC1B8ue170006IiNS_18__default_init_tagEEEOT_OT0_, symObjAddr: 0x1C28, symBinAddr: 0x10000E5B0, symSize: 0x3C }
  - { offsetInCU: 0x1B192, offset: 0x4AD5A, size: 0x8, addend: 0x0, symName: __ZNSt3__117__compressed_pairIfNS_21__unordered_map_equalINS_12basic_stringIcNS_11char_traitsIcEENS_9allocatorIcEEEENS_17__hash_value_typeIS7_dEENS_8equal_toIS7_EENS_4hashIS7_EELb1EEEEC1B8ue170006IfNS_18__default_init_tagEEEOT_OT0_, symObjAddr: 0x1C64, symBinAddr: 0x10000E5EC, symSize: 0x3C }
  - { offsetInCU: 0x1B1E8, offset: 0x4ADB0, size: 0x8, addend: 0x0, symName: __ZNSt3__110unique_ptrIA_PNS_16__hash_node_baseIPNS_11__hash_nodeINS_17__hash_value_typeINS_12basic_stringIcNS_11char_traitsIcEENS_9allocatorIcEEEEdEEPvEEEENS_25__bucket_list_deallocatorINS7_ISF_EEEEEC2B8ue170006ILb1EvEEv, symObjAddr: 0x1CA0, symBinAddr: 0x10000E628, symSize: 0x3C }
  - { offsetInCU: 0x1B21C, offset: 0x4ADE4, size: 0x8, addend: 0x0, symName: __ZNSt3__117__compressed_pairIPPNS_16__hash_node_baseIPNS_11__hash_nodeINS_17__hash_value_typeINS_12basic_stringIcNS_11char_traitsIcEENS_9allocatorIcEEEEdEEPvEEEENS_25__bucket_list_deallocatorINS7_ISF_EEEEEC1B8ue170006INS_16__value_init_tagESM_EEOT_OT0_, symObjAddr: 0x1CDC, symBinAddr: 0x10000E664, symSize: 0x3C }
  - { offsetInCU: 0x1B272, offset: 0x4AE3A, size: 0x8, addend: 0x0, symName: __ZNSt3__117__compressed_pairIPPNS_16__hash_node_baseIPNS_11__hash_nodeINS_17__hash_value_typeINS_12basic_stringIcNS_11char_traitsIcEENS_9allocatorIcEEEEdEEPvEEEENS_25__bucket_list_deallocatorINS7_ISF_EEEEEC2B8ue170006INS_16__value_init_tagESM_EEOT_OT0_, symObjAddr: 0x1D18, symBinAddr: 0x10000E6A0, symSize: 0x40 }
  - { offsetInCU: 0x1B2C8, offset: 0x4AE90, size: 0x8, addend: 0x0, symName: __ZNSt3__122__compressed_pair_elemIPPNS_16__hash_node_baseIPNS_11__hash_nodeINS_17__hash_value_typeINS_12basic_stringIcNS_11char_traitsIcEENS_9allocatorIcEEEEdEEPvEEEELi0ELb0EEC2B8ue170006ENS_16__value_init_tagE, symObjAddr: 0x1D58, symBinAddr: 0x10000E6E0, symSize: 0x18 }
  - { offsetInCU: 0x1B2FA, offset: 0x4AEC2, size: 0x8, addend: 0x0, symName: __ZNSt3__122__compressed_pair_elemINS_25__bucket_list_deallocatorINS_9allocatorIPNS_16__hash_node_baseIPNS_11__hash_nodeINS_17__hash_value_typeINS_12basic_stringIcNS_11char_traitsIcEENS2_IcEEEEdEEPvEEEEEEEELi1ELb0EEC2B8ue170006ENS_16__value_init_tagE, symObjAddr: 0x1D70, symBinAddr: 0x10000E6F8, symSize: 0x2C }
  - { offsetInCU: 0x1B32C, offset: 0x4AEF4, size: 0x8, addend: 0x0, symName: __ZNSt3__125__bucket_list_deallocatorINS_9allocatorIPNS_16__hash_node_baseIPNS_11__hash_nodeINS_17__hash_value_typeINS_12basic_stringIcNS_11char_traitsIcEENS1_IcEEEEdEEPvEEEEEEEC1B8ue170006Ev, symObjAddr: 0x1D9C, symBinAddr: 0x10000E724, symSize: 0x2C }
  - { offsetInCU: 0x1B354, offset: 0x4AF1C, size: 0x8, addend: 0x0, symName: __ZNSt3__125__bucket_list_deallocatorINS_9allocatorIPNS_16__hash_node_baseIPNS_11__hash_nodeINS_17__hash_value_typeINS_12basic_stringIcNS_11char_traitsIcEENS1_IcEEEEdEEPvEEEEEEEC2B8ue170006Ev, symObjAddr: 0x1DC8, symBinAddr: 0x10000E750, symSize: 0x40 }
  - { offsetInCU: 0x1B37C, offset: 0x4AF44, size: 0x8, addend: 0x0, symName: __ZNSt3__117__compressed_pairImNS_9allocatorIPNS_16__hash_node_baseIPNS_11__hash_nodeINS_17__hash_value_typeINS_12basic_stringIcNS_11char_traitsIcEENS1_IcEEEEdEEPvEEEEEEEC1B8ue170006IiNS_18__default_init_tagEEEOT_OT0_, symObjAddr: 0x1E08, symBinAddr: 0x10000E790, symSize: 0x3C }
  - { offsetInCU: 0x1B3D2, offset: 0x4AF9A, size: 0x8, addend: 0x0, symName: __ZNSt3__117__compressed_pairImNS_9allocatorIPNS_16__hash_node_baseIPNS_11__hash_nodeINS_17__hash_value_typeINS_12basic_stringIcNS_11char_traitsIcEENS1_IcEEEEdEEPvEEEEEEEC2B8ue170006IiNS_18__default_init_tagEEEOT_OT0_, symObjAddr: 0x1E44, symBinAddr: 0x10000E7CC, symSize: 0x40 }
  - { offsetInCU: 0x1B428, offset: 0x4AFF0, size: 0x8, addend: 0x0, symName: __ZNSt3__122__compressed_pair_elemINS_9allocatorIPNS_16__hash_node_baseIPNS_11__hash_nodeINS_17__hash_value_typeINS_12basic_stringIcNS_11char_traitsIcEENS1_IcEEEEdEEPvEEEEEELi1ELb1EEC2B8ue170006ENS_18__default_init_tagE, symObjAddr: 0x1E84, symBinAddr: 0x10000E80C, symSize: 0x2C }
  - { offsetInCU: 0x1B45A, offset: 0x4B022, size: 0x8, addend: 0x0, symName: __ZNSt3__19allocatorIPNS_16__hash_node_baseIPNS_11__hash_nodeINS_17__hash_value_typeINS_12basic_stringIcNS_11char_traitsIcEENS0_IcEEEEdEEPvEEEEEC2B8ue170006Ev, symObjAddr: 0x1EB0, symBinAddr: 0x10000E838, symSize: 0x2C }
  - { offsetInCU: 0x1B482, offset: 0x4B04A, size: 0x8, addend: 0x0, symName: __ZNSt3__116__non_trivial_ifILb1ENS_9allocatorIPNS_16__hash_node_baseIPNS_11__hash_nodeINS_17__hash_value_typeINS_12basic_stringIcNS_11char_traitsIcEENS1_IcEEEEdEEPvEEEEEEEC2B8ue170006Ev, symObjAddr: 0x1EDC, symBinAddr: 0x10000E864, symSize: 0x14 }
  - { offsetInCU: 0x1B4AA, offset: 0x4B072, size: 0x8, addend: 0x0, symName: __ZNSt3__117__compressed_pairINS_16__hash_node_baseIPNS_11__hash_nodeINS_17__hash_value_typeINS_12basic_stringIcNS_11char_traitsIcEENS_9allocatorIcEEEEdEEPvEEEENS7_ISC_EEEC2B8ue170006ILb1EvEEv, symObjAddr: 0x1EF0, symBinAddr: 0x10000E878, symSize: 0x34 }
  - { offsetInCU: 0x1B4DE, offset: 0x4B0A6, size: 0x8, addend: 0x0, symName: __ZNSt3__122__compressed_pair_elemINS_16__hash_node_baseIPNS_11__hash_nodeINS_17__hash_value_typeINS_12basic_stringIcNS_11char_traitsIcEENS_9allocatorIcEEEEdEEPvEEEELi0ELb0EEC2B8ue170006ENS_16__value_init_tagE, symObjAddr: 0x1F24, symBinAddr: 0x10000E8AC, symSize: 0x2C }
  - { offsetInCU: 0x1B510, offset: 0x4B0D8, size: 0x8, addend: 0x0, symName: __ZNSt3__122__compressed_pair_elemINS_9allocatorINS_11__hash_nodeINS_17__hash_value_typeINS_12basic_stringIcNS_11char_traitsIcEENS1_IcEEEEdEEPvEEEELi1ELb1EEC2B8ue170006ENS_16__value_init_tagE, symObjAddr: 0x1F50, symBinAddr: 0x10000E8D8, symSize: 0x2C }
  - { offsetInCU: 0x1B542, offset: 0x4B10A, size: 0x8, addend: 0x0, symName: __ZNSt3__116__hash_node_baseIPNS_11__hash_nodeINS_17__hash_value_typeINS_12basic_stringIcNS_11char_traitsIcEENS_9allocatorIcEEEEdEEPvEEEC1B8ue170006Ev, symObjAddr: 0x1F7C, symBinAddr: 0x10000E904, symSize: 0x2C }
  - { offsetInCU: 0x1B56A, offset: 0x4B132, size: 0x8, addend: 0x0, symName: __ZNSt3__116__hash_node_baseIPNS_11__hash_nodeINS_17__hash_value_typeINS_12basic_stringIcNS_11char_traitsIcEENS_9allocatorIcEEEEdEEPvEEEC2B8ue170006Ev, symObjAddr: 0x1FA8, symBinAddr: 0x10000E930, symSize: 0x18 }
  - { offsetInCU: 0x1B592, offset: 0x4B15A, size: 0x8, addend: 0x0, symName: __ZNSt3__19allocatorINS_11__hash_nodeINS_17__hash_value_typeINS_12basic_stringIcNS_11char_traitsIcEENS0_IcEEEEdEEPvEEEC2B8ue170006Ev, symObjAddr: 0x1FC0, symBinAddr: 0x10000E948, symSize: 0x2C }
  - { offsetInCU: 0x1B5BA, offset: 0x4B182, size: 0x8, addend: 0x0, symName: __ZNSt3__116__non_trivial_ifILb1ENS_9allocatorINS_11__hash_nodeINS_17__hash_value_typeINS_12basic_stringIcNS_11char_traitsIcEENS1_IcEEEEdEEPvEEEEEC2B8ue170006Ev, symObjAddr: 0x1FEC, symBinAddr: 0x10000E974, symSize: 0x14 }
  - { offsetInCU: 0x1B5E2, offset: 0x4B1AA, size: 0x8, addend: 0x0, symName: __ZNSt3__117__compressed_pairImNS_22__unordered_map_hasherINS_12basic_stringIcNS_11char_traitsIcEENS_9allocatorIcEEEENS_17__hash_value_typeIS7_dEENS_4hashIS7_EENS_8equal_toIS7_EELb1EEEEC2B8ue170006IiNS_18__default_init_tagEEEOT_OT0_, symObjAddr: 0x2000, symBinAddr: 0x10000E988, symSize: 0x40 }
  - { offsetInCU: 0x1B638, offset: 0x4B200, size: 0x8, addend: 0x0, symName: __ZNSt3__122__compressed_pair_elemINS_22__unordered_map_hasherINS_12basic_stringIcNS_11char_traitsIcEENS_9allocatorIcEEEENS_17__hash_value_typeIS7_dEENS_4hashIS7_EENS_8equal_toIS7_EELb1EEELi1ELb1EEC2B8ue170006ENS_18__default_init_tagE, symObjAddr: 0x2040, symBinAddr: 0x10000E9C8, symSize: 0x2C }
  - { offsetInCU: 0x1B66A, offset: 0x4B232, size: 0x8, addend: 0x0, symName: __ZNSt3__122__unordered_map_hasherINS_12basic_stringIcNS_11char_traitsIcEENS_9allocatorIcEEEENS_17__hash_value_typeIS6_dEENS_4hashIS6_EENS_8equal_toIS6_EELb1EEC2B8ue170006Ev, symObjAddr: 0x206C, symBinAddr: 0x10000E9F4, symSize: 0x14 }
  - { offsetInCU: 0x1B692, offset: 0x4B25A, size: 0x8, addend: 0x0, symName: __ZNSt3__117__compressed_pairIfNS_21__unordered_map_equalINS_12basic_stringIcNS_11char_traitsIcEENS_9allocatorIcEEEENS_17__hash_value_typeIS7_dEENS_8equal_toIS7_EENS_4hashIS7_EELb1EEEEC2B8ue170006IfNS_18__default_init_tagEEEOT_OT0_, symObjAddr: 0x2080, symBinAddr: 0x10000EA08, symSize: 0x40 }
  - { offsetInCU: 0x1B6E8, offset: 0x4B2B0, size: 0x8, addend: 0x0, symName: __ZNSt3__122__compressed_pair_elemINS_21__unordered_map_equalINS_12basic_stringIcNS_11char_traitsIcEENS_9allocatorIcEEEENS_17__hash_value_typeIS7_dEENS_8equal_toIS7_EENS_4hashIS7_EELb1EEELi1ELb1EEC2B8ue170006ENS_18__default_init_tagE, symObjAddr: 0x20C0, symBinAddr: 0x10000EA48, symSize: 0x2C }
  - { offsetInCU: 0x1B71A, offset: 0x4B2E2, size: 0x8, addend: 0x0, symName: __ZNSt3__121__unordered_map_equalINS_12basic_stringIcNS_11char_traitsIcEENS_9allocatorIcEEEENS_17__hash_value_typeIS6_dEENS_8equal_toIS6_EENS_4hashIS6_EELb1EEC2B8ue170006Ev, symObjAddr: 0x20EC, symBinAddr: 0x10000EA74, symSize: 0x14 }
  - { offsetInCU: 0x1B742, offset: 0x4B30A, size: 0x8, addend: 0x0, symName: __ZN4DateC2Eiii, symObjAddr: 0x2100, symBinAddr: 0x10000EA88, symSize: 0x38 }
  - { offsetInCU: 0x1B794, offset: 0x4B35C, size: 0x8, addend: 0x0, symName: __ZN4BondC2E4DateS0_dd, symObjAddr: 0x2138, symBinAddr: 0x10000EAC0, symSize: 0x174 }
  - { offsetInCU: 0x1B7FE, offset: 0x4B3C6, size: 0x8, addend: 0x0, symName: __ZNSt3__112basic_stringIcNS_11char_traitsIcEENS_9allocatorIcEEEC1B8ue170006ILi0EEEPKc, symObjAddr: 0x22AC, symBinAddr: 0x10000EC34, symSize: 0x34 }
  - { offsetInCU: 0x1B83C, offset: 0x4B404, size: 0x8, addend: 0x0, symName: __ZN5TradeC2ERKNSt3__112basic_stringIcNS0_11char_traitsIcEENS0_9allocatorIcEEEE4Date, symObjAddr: 0x22E0, symBinAddr: 0x10000EC68, symSize: 0xA8 }
  - { offsetInCU: 0x1B880, offset: 0x4B448, size: 0x8, addend: 0x0, symName: __ZN5TradeD2Ev, symObjAddr: 0x2388, symBinAddr: 0x10000ED10, symSize: 0x40 }
  - { offsetInCU: 0x1B8A8, offset: 0x4B470, size: 0x8, addend: 0x0, symName: __ZNK4Bond6PayoffEd, symObjAddr: 0x23C8, symBinAddr: 0x10000ED50, symSize: 0x18 }
  - { offsetInCU: 0x1B8DA, offset: 0x4B4A2, size: 0x8, addend: 0x0, symName: __ZN4BondD1Ev, symObjAddr: 0x23E0, symBinAddr: 0x10000ED68, symSize: 0x2C }
  - { offsetInCU: 0x1B905, offset: 0x4B4CD, size: 0x8, addend: 0x0, symName: __ZN4BondD0Ev, symObjAddr: 0x240C, symBinAddr: 0x10000ED94, symSize: 0x30 }
  - { offsetInCU: 0x1B930, offset: 0x4B4F8, size: 0x8, addend: 0x0, symName: __ZNSt3__112basic_stringIcNS_11char_traitsIcEENS_9allocatorIcEEEC2B8ue170006ILi0EEEPKc, symObjAddr: 0x243C, symBinAddr: 0x10000EDC4, symSize: 0x58 }
  - { offsetInCU: 0x1B96E, offset: 0x4B536, size: 0x8, addend: 0x0, symName: __ZN5TradeD1Ev, symObjAddr: 0x25E4, symBinAddr: 0x10000EE1C, symSize: 0x14 }
  - { offsetInCU: 0x1B996, offset: 0x4B55E, size: 0x8, addend: 0x0, symName: __ZN5TradeD0Ev, symObjAddr: 0x25F8, symBinAddr: 0x10000EE30, symSize: 0xC }
  - { offsetInCU: 0x1B9BE, offset: 0x4B586, size: 0x8, addend: 0x0, symName: __ZN4BondD2Ev, symObjAddr: 0x2604, symBinAddr: 0x10000EE3C, symSize: 0x2C }
  - { offsetInCU: 0x1B9E9, offset: 0x4B5B1, size: 0x8, addend: 0x0, symName: __ZN21CRRBinomialTreePricerC2Ei, symObjAddr: 0x2630, symBinAddr: 0x10000EE68, symSize: 0x4C }
  - { offsetInCU: 0x1BA1F, offset: 0x4B5E7, size: 0x8, addend: 0x0, symName: __ZN18BinomialTreePricerC2Ei, symObjAddr: 0x267C, symBinAddr: 0x10000EEB4, symSize: 0xA4 }
  - { offsetInCU: 0x1BA55, offset: 0x4B61D, size: 0x8, addend: 0x0, symName: __ZN6PricerC2Ev, symObjAddr: 0x2720, symBinAddr: 0x10000EF58, symSize: 0x24 }
  - { offsetInCU: 0x1BA80, offset: 0x4B648, size: 0x8, addend: 0x0, symName: __ZNSt3__16vectorIdNS_9allocatorIdEEEC1B8ue170006Ev, symObjAddr: 0x2744, symBinAddr: 0x10000EF7C, symSize: 0x2C }
  - { offsetInCU: 0x1BAA8, offset: 0x4B670, size: 0x8, addend: 0x0, symName: __ZNSt3__16vectorIdNS_9allocatorIdEEE6resizeEm, symObjAddr: 0x2770, symBinAddr: 0x10000EFA8, symSize: 0x94 }
  - { offsetInCU: 0x1BAEC, offset: 0x4B6B4, size: 0x8, addend: 0x0, symName: __ZNSt3__16vectorIdNS_9allocatorIdEEEC2B8ue170006Ev, symObjAddr: 0x2830, symBinAddr: 0x10000F03C, symSize: 0x4C }
  - { offsetInCU: 0x1BB19, offset: 0x4B6E1, size: 0x8, addend: 0x0, symName: __ZNSt3__117__compressed_pairIPdNS_9allocatorIdEEEC1B8ue170006IDnNS_18__default_init_tagEEEOT_OT0_, symObjAddr: 0x287C, symBinAddr: 0x10000F088, symSize: 0x3C }
  - { offsetInCU: 0x1BB6F, offset: 0x4B737, size: 0x8, addend: 0x0, symName: __ZNSt3__117__compressed_pairIPdNS_9allocatorIdEEEC2B8ue170006IDnNS_18__default_init_tagEEEOT_OT0_, symObjAddr: 0x28B8, symBinAddr: 0x10000F0C4, symSize: 0x40 }
  - { offsetInCU: 0x1BBC5, offset: 0x4B78D, size: 0x8, addend: 0x0, symName: __ZNSt3__122__compressed_pair_elemINS_9allocatorIdEELi1ELb1EEC2B8ue170006ENS_18__default_init_tagE, symObjAddr: 0x2914, symBinAddr: 0x10000F104, symSize: 0x2C }
  - { offsetInCU: 0x1BBF7, offset: 0x4B7BF, size: 0x8, addend: 0x0, symName: __ZNSt3__19allocatorIdEC2B8ue170006Ev, symObjAddr: 0x2940, symBinAddr: 0x10000F130, symSize: 0x2C }
  - { offsetInCU: 0x1BC1F, offset: 0x4B7E7, size: 0x8, addend: 0x0, symName: __ZNSt3__116__non_trivial_ifILb1ENS_9allocatorIdEEEC2B8ue170006Ev, symObjAddr: 0x296C, symBinAddr: 0x10000F15C, symSize: 0x14 }
  - { offsetInCU: 0x1BC47, offset: 0x4B80F, size: 0x8, addend: 0x0, symName: __ZNSt3__16vectorIdNS_9allocatorIdEEE8__appendEm, symObjAddr: 0x29A8, symBinAddr: 0x10000F170, symSize: 0x108 }
  - { offsetInCU: 0x1BCA0, offset: 0x4B868, size: 0x8, addend: 0x0, symName: __ZNSt3__16vectorIdNS_9allocatorIdEEE17__destruct_at_endB8ue170006EPd, symObjAddr: 0x2AB0, symBinAddr: 0x10000F278, symSize: 0x4C }
  - { offsetInCU: 0x1BCE2, offset: 0x4B8AA, size: 0x8, addend: 0x0, symName: __ZNSt3__16vectorIdNS_9allocatorIdEEE18__construct_at_endEm, symObjAddr: 0x2B24, symBinAddr: 0x10000F2C4, symSize: 0xC8 }
  - { offsetInCU: 0x1BD53, offset: 0x4B91B, size: 0x8, addend: 0x0, symName: __ZNSt3__114__split_bufferIdRNS_9allocatorIdEEE18__construct_at_endEm, symObjAddr: 0x2D0C, symBinAddr: 0x10000F38C, symSize: 0xB4 }
  - { offsetInCU: 0x1BDAF, offset: 0x4B977, size: 0x8, addend: 0x0, symName: __ZNSt3__116allocator_traitsINS_9allocatorIdEEE9constructB8ue170006IdJEvEEvRS2_PT_DpOT0_, symObjAddr: 0x2F70, symBinAddr: 0x10000F440, symSize: 0x2C }
  - { offsetInCU: 0x1BDF2, offset: 0x4B9BA, size: 0x8, addend: 0x0, symName: __ZNSt3__19allocatorIdE9constructB8ue170006IdJEEEvPT_DpOT0_, symObjAddr: 0x3020, symBinAddr: 0x10000F46C, symSize: 0x20 }
  - { offsetInCU: 0x1BE47, offset: 0x4BA0F, size: 0x8, addend: 0x0, symName: __ZNSt3__114__split_bufferIdRNS_9allocatorIdEEE21_ConstructTransactionC1B8ue170006EPPdm, symObjAddr: 0x3848, symBinAddr: 0x10000F48C, symSize: 0x3C }
  - { offsetInCU: 0x1BE8B, offset: 0x4BA53, size: 0x8, addend: 0x0, symName: __ZNSt3__114__split_bufferIdRNS_9allocatorIdEEE21_ConstructTransactionD1B8ue170006Ev, symObjAddr: 0x3884, symBinAddr: 0x10000F4C8, symSize: 0x2C }
  - { offsetInCU: 0x1BEB3, offset: 0x4BA7B, size: 0x8, addend: 0x0, symName: __ZNSt3__114__split_bufferIdRNS_9allocatorIdEEE21_ConstructTransactionC2B8ue170006EPPdm, symObjAddr: 0x38B0, symBinAddr: 0x10000F4F4, symSize: 0x44 }
  - { offsetInCU: 0x1BEF7, offset: 0x4BABF, size: 0x8, addend: 0x0, symName: __ZNSt3__114__split_bufferIdRNS_9allocatorIdEEE21_ConstructTransactionD2B8ue170006Ev, symObjAddr: 0x38F4, symBinAddr: 0x10000F538, symSize: 0x20 }
  - { offsetInCU: 0x1BF29, offset: 0x4BAF1, size: 0x8, addend: 0x0, symName: __ZNKSt3__16vectorIdNS_9allocatorIdEEE17__annotate_shrinkB8ue170006Em, symObjAddr: 0x4674, symBinAddr: 0x10000F558, symSize: 0xB4 }
  - { offsetInCU: 0x1BF5C, offset: 0x4BB24, size: 0x8, addend: 0x0, symName: __ZNKSt3__111__wrap_iterIPP5TradeE4baseB8ue170006Ev, symObjAddr: 0x48C0, symBinAddr: 0x10000F654, symSize: 0x18 }
  - { offsetInCU: 0x1BF80, offset: 0x4BB48, size: 0x8, addend: 0x0, symName: __ZN6MarketD2Ev, symObjAddr: 0x48D8, symBinAddr: 0x10000F66C, symSize: 0x54 }
  - { offsetInCU: 0x1BFAB, offset: 0x4BB73, size: 0x8, addend: 0x0, symName: __ZNSt3__113unordered_mapINS_12basic_stringIcNS_11char_traitsIcEENS_9allocatorIcEEEEdNS_4hashIS6_EENS_8equal_toIS6_EENS4_INS_4pairIKS6_dEEEEED1B8ue170006Ev, symObjAddr: 0x492C, symBinAddr: 0x10000F6C0, symSize: 0x2C }
  - { offsetInCU: 0x1BFD3, offset: 0x4BB9B, size: 0x8, addend: 0x0, symName: __ZNSt3__113unordered_mapINS_12basic_stringIcNS_11char_traitsIcEENS_9allocatorIcEEEE9RateCurveNS_4hashIS6_EENS_8equal_toIS6_EENS4_INS_4pairIKS6_S7_EEEEED1B8ue170006Ev, symObjAddr: 0x4958, symBinAddr: 0x10000F6EC, symSize: 0x2C }
  - { offsetInCU: 0x1BFFB, offset: 0x4BBC3, size: 0x8, addend: 0x0, symName: __ZNSt3__113unordered_mapINS_12basic_stringIcNS_11char_traitsIcEENS_9allocatorIcEEEE8VolCurveNS_4hashIS6_EENS_8equal_toIS6_EENS4_INS_4pairIKS6_S7_EEEEED1B8ue170006Ev, symObjAddr: 0x4984, symBinAddr: 0x10000F718, symSize: 0x2C }
  - { offsetInCU: 0x1C023, offset: 0x4BBEB, size: 0x8, addend: 0x0, symName: __ZNSt3__113unordered_mapINS_12basic_stringIcNS_11char_traitsIcEENS_9allocatorIcEEEEdNS_4hashIS6_EENS_8equal_toIS6_EENS4_INS_4pairIKS6_dEEEEED2B8ue170006Ev, symObjAddr: 0x49B0, symBinAddr: 0x10000F744, symSize: 0x2C }
  - { offsetInCU: 0x1C04B, offset: 0x4BC13, size: 0x8, addend: 0x0, symName: __ZNSt3__112__hash_tableINS_17__hash_value_typeINS_12basic_stringIcNS_11char_traitsIcEENS_9allocatorIcEEEEdEENS_22__unordered_map_hasherIS7_S8_NS_4hashIS7_EENS_8equal_toIS7_EELb1EEENS_21__unordered_map_equalIS7_S8_SD_SB_Lb1EEENS5_IS8_EEED1Ev, symObjAddr: 0x49DC, symBinAddr: 0x10000F770, symSize: 0x2C }
  - { offsetInCU: 0x1C076, offset: 0x4BC3E, size: 0x8, addend: 0x0, symName: __ZNSt3__112__hash_tableINS_17__hash_value_typeINS_12basic_stringIcNS_11char_traitsIcEENS_9allocatorIcEEEEdEENS_22__unordered_map_hasherIS7_S8_NS_4hashIS7_EENS_8equal_toIS7_EELb1EEENS_21__unordered_map_equalIS7_S8_SD_SB_Lb1EEENS5_IS8_EEED2Ev, symObjAddr: 0x4A08, symBinAddr: 0x10000F79C, symSize: 0x48 }
  - { offsetInCU: 0x1C0A1, offset: 0x4BC69, size: 0x8, addend: 0x0, symName: __ZNSt3__112__hash_tableINS_17__hash_value_typeINS_12basic_stringIcNS_11char_traitsIcEENS_9allocatorIcEEEEdEENS_22__unordered_map_hasherIS7_S8_NS_4hashIS7_EENS_8equal_toIS7_EELb1EEENS_21__unordered_map_equalIS7_S8_SD_SB_Lb1EEENS5_IS8_EEE17__deallocate_nodeEPNS_16__hash_node_baseIPNS_11__hash_nodeIS8_PvEEEE, symObjAddr: 0x4A50, symBinAddr: 0x10000F7E4, symSize: 0xA8 }
  - { offsetInCU: 0x1C109, offset: 0x4BCD1, size: 0x8, addend: 0x0, symName: __ZNSt3__117__compressed_pairINS_16__hash_node_baseIPNS_11__hash_nodeINS_17__hash_value_typeINS_12basic_stringIcNS_11char_traitsIcEENS_9allocatorIcEEEEdEEPvEEEENS7_ISC_EEE5firstB8ue170006Ev, symObjAddr: 0x4AF8, symBinAddr: 0x10000F88C, symSize: 0x24 }
  - { offsetInCU: 0x1C12D, offset: 0x4BCF5, size: 0x8, addend: 0x0, symName: __ZNSt3__110unique_ptrIA_PNS_16__hash_node_baseIPNS_11__hash_nodeINS_17__hash_value_typeINS_12basic_stringIcNS_11char_traitsIcEENS_9allocatorIcEEEEdEEPvEEEENS_25__bucket_list_deallocatorINS7_ISF_EEEEED1B8ue170006Ev, symObjAddr: 0x4B1C, symBinAddr: 0x10000F8B0, symSize: 0x2C }
  - { offsetInCU: 0x1C155, offset: 0x4BD1D, size: 0x8, addend: 0x0, symName: __ZNSt3__112__hash_tableINS_17__hash_value_typeINS_12basic_stringIcNS_11char_traitsIcEENS_9allocatorIcEEEEdEENS_22__unordered_map_hasherIS7_S8_NS_4hashIS7_EENS_8equal_toIS7_EELb1EEENS_21__unordered_map_equalIS7_S8_SD_SB_Lb1EEENS5_IS8_EEE12__node_allocB8ue170006Ev, symObjAddr: 0x4B48, symBinAddr: 0x10000F8DC, symSize: 0x28 }
  - { offsetInCU: 0x1C179, offset: 0x4BD41, size: 0x8, addend: 0x0, symName: __ZNSt3__116__hash_node_baseIPNS_11__hash_nodeINS_17__hash_value_typeINS_12basic_stringIcNS_11char_traitsIcEENS_9allocatorIcEEEEdEEPvEEE8__upcastB8ue170006Ev, symObjAddr: 0x4B70, symBinAddr: 0x10000F904, symSize: 0x24 }
  - { offsetInCU: 0x1C1A2, offset: 0x4BD6A, size: 0x8, addend: 0x0, symName: __ZNSt3__116allocator_traitsINS_9allocatorINS_11__hash_nodeINS_17__hash_value_typeINS_12basic_stringIcNS_11char_traitsIcEENS1_IcEEEEdEEPvEEEEE7destroyB8ue170006INS_4pairIKS8_dEEvvEEvRSC_PT_, symObjAddr: 0x4B94, symBinAddr: 0x10000F928, symSize: 0x28 }
  - { offsetInCU: 0x1C1DE, offset: 0x4BDA6, size: 0x8, addend: 0x0, symName: __ZNSt3__122__hash_key_value_typesINS_17__hash_value_typeINS_12basic_stringIcNS_11char_traitsIcEENS_9allocatorIcEEEEdEEE9__get_ptrB8ue170006ERS8_, symObjAddr: 0x4BBC, symBinAddr: 0x10000F950, symSize: 0x24 }
  - { offsetInCU: 0x1C200, offset: 0x4BDC8, size: 0x8, addend: 0x0, symName: __ZNSt3__116allocator_traitsINS_9allocatorINS_11__hash_nodeINS_17__hash_value_typeINS_12basic_stringIcNS_11char_traitsIcEENS1_IcEEEEdEEPvEEEEE10deallocateB8ue170006ERSC_PSB_m, symObjAddr: 0x4BE0, symBinAddr: 0x10000F974, symSize: 0x34 }
  - { offsetInCU: 0x1C241, offset: 0x4BE09, size: 0x8, addend: 0x0, symName: __ZNSt3__117__compressed_pairINS_16__hash_node_baseIPNS_11__hash_nodeINS_17__hash_value_typeINS_12basic_stringIcNS_11char_traitsIcEENS_9allocatorIcEEEEdEEPvEEEENS7_ISC_EEE6secondB8ue170006Ev, symObjAddr: 0x4C14, symBinAddr: 0x10000F9A8, symSize: 0x24 }
  - { offsetInCU: 0x1C265, offset: 0x4BE2D, size: 0x8, addend: 0x0, symName: __ZNSt3__122__compressed_pair_elemINS_9allocatorINS_11__hash_nodeINS_17__hash_value_typeINS_12basic_stringIcNS_11char_traitsIcEENS1_IcEEEEdEEPvEEEELi1ELb1EE5__getB8ue170006Ev, symObjAddr: 0x4C38, symBinAddr: 0x10000F9CC, symSize: 0x14 }
  - { offsetInCU: 0x1C289, offset: 0x4BE51, size: 0x8, addend: 0x0, symName: __ZNSt3__114pointer_traitsIPNS_16__hash_node_baseIPNS_11__hash_nodeINS_17__hash_value_typeINS_12basic_stringIcNS_11char_traitsIcEENS_9allocatorIcEEEEdEEPvEEEEE10pointer_toB8ue170006ERSE_, symObjAddr: 0x4C4C, symBinAddr: 0x10000F9E0, symSize: 0x14 }
  - { offsetInCU: 0x1C2AB, offset: 0x4BE73, size: 0x8, addend: 0x0, symName: __ZNSt3__14pairIKNS_12basic_stringIcNS_11char_traitsIcEENS_9allocatorIcEEEEdED1Ev, symObjAddr: 0x4C60, symBinAddr: 0x10000F9F4, symSize: 0x2C }
  - { offsetInCU: 0x1C2D6, offset: 0x4BE9E, size: 0x8, addend: 0x0, symName: __ZNSt3__14pairIKNS_12basic_stringIcNS_11char_traitsIcEENS_9allocatorIcEEEEdED2Ev, symObjAddr: 0x4C8C, symBinAddr: 0x10000FA20, symSize: 0x2C }
  - { offsetInCU: 0x1C301, offset: 0x4BEC9, size: 0x8, addend: 0x0, symName: __ZNSt3__117__hash_value_typeINS_12basic_stringIcNS_11char_traitsIcEENS_9allocatorIcEEEEdE11__get_valueB8ue170006Ev, symObjAddr: 0x4CB8, symBinAddr: 0x10000FA4C, symSize: 0x24 }
  - { offsetInCU: 0x1C325, offset: 0x4BEED, size: 0x8, addend: 0x0, symName: __ZNSt3__19allocatorINS_11__hash_nodeINS_17__hash_value_typeINS_12basic_stringIcNS_11char_traitsIcEENS0_IcEEEEdEEPvEEE10deallocateB8ue170006EPSA_m, symObjAddr: 0x4D14, symBinAddr: 0x10000FAA8, symSize: 0x44 }
  - { offsetInCU: 0x1C365, offset: 0x4BF2D, size: 0x8, addend: 0x0, symName: __ZNSt3__122__compressed_pair_elemINS_16__hash_node_baseIPNS_11__hash_nodeINS_17__hash_value_typeINS_12basic_stringIcNS_11char_traitsIcEENS_9allocatorIcEEEEdEEPvEEEELi0ELb0EE5__getB8ue170006Ev, symObjAddr: 0x4D58, symBinAddr: 0x10000FAEC, symSize: 0x14 }
  - { offsetInCU: 0x1C389, offset: 0x4BF51, size: 0x8, addend: 0x0, symName: __ZNSt3__110unique_ptrIA_PNS_16__hash_node_baseIPNS_11__hash_nodeINS_17__hash_value_typeINS_12basic_stringIcNS_11char_traitsIcEENS_9allocatorIcEEEEdEEPvEEEENS_25__bucket_list_deallocatorINS7_ISF_EEEEED2B8ue170006Ev, symObjAddr: 0x4D6C, symBinAddr: 0x10000FB00, symSize: 0x30 }
  - { offsetInCU: 0x1C3B1, offset: 0x4BF79, size: 0x8, addend: 0x0, symName: __ZNSt3__110unique_ptrIA_PNS_16__hash_node_baseIPNS_11__hash_nodeINS_17__hash_value_typeINS_12basic_stringIcNS_11char_traitsIcEENS_9allocatorIcEEEEdEEPvEEEENS_25__bucket_list_deallocatorINS7_ISF_EEEEE5resetB8ue170006EDn, symObjAddr: 0x4D9C, symBinAddr: 0x10000FB30, symSize: 0x6C }
  - { offsetInCU: 0x1C3F0, offset: 0x4BFB8, size: 0x8, addend: 0x0, symName: __ZNSt3__117__compressed_pairIPPNS_16__hash_node_baseIPNS_11__hash_nodeINS_17__hash_value_typeINS_12basic_stringIcNS_11char_traitsIcEENS_9allocatorIcEEEEdEEPvEEEENS_25__bucket_list_deallocatorINS7_ISF_EEEEE5firstB8ue170006Ev, symObjAddr: 0x4E08, symBinAddr: 0x10000FB9C, symSize: 0x24 }
  - { offsetInCU: 0x1C414, offset: 0x4BFDC, size: 0x8, addend: 0x0, symName: __ZNSt3__117__compressed_pairIPPNS_16__hash_node_baseIPNS_11__hash_nodeINS_17__hash_value_typeINS_12basic_stringIcNS_11char_traitsIcEENS_9allocatorIcEEEEdEEPvEEEENS_25__bucket_list_deallocatorINS7_ISF_EEEEE6secondB8ue170006Ev, symObjAddr: 0x4E2C, symBinAddr: 0x10000FBC0, symSize: 0x28 }
  - { offsetInCU: 0x1C438, offset: 0x4C000, size: 0x8, addend: 0x0, symName: __ZNSt3__125__bucket_list_deallocatorINS_9allocatorIPNS_16__hash_node_baseIPNS_11__hash_nodeINS_17__hash_value_typeINS_12basic_stringIcNS_11char_traitsIcEENS1_IcEEEEdEEPvEEEEEEEclB8ue170006EPSF_, symObjAddr: 0x4E54, symBinAddr: 0x10000FBE8, symSize: 0x58 }
  - { offsetInCU: 0x1C46B, offset: 0x4C033, size: 0x8, addend: 0x0, symName: __ZNSt3__122__compressed_pair_elemIPPNS_16__hash_node_baseIPNS_11__hash_nodeINS_17__hash_value_typeINS_12basic_stringIcNS_11char_traitsIcEENS_9allocatorIcEEEEdEEPvEEEELi0ELb0EE5__getB8ue170006Ev, symObjAddr: 0x4EAC, symBinAddr: 0x10000FC40, symSize: 0x14 }
  - { offsetInCU: 0x1C48F, offset: 0x4C057, size: 0x8, addend: 0x0, symName: __ZNSt3__122__compressed_pair_elemINS_25__bucket_list_deallocatorINS_9allocatorIPNS_16__hash_node_baseIPNS_11__hash_nodeINS_17__hash_value_typeINS_12basic_stringIcNS_11char_traitsIcEENS2_IcEEEEdEEPvEEEEEEEELi1ELb0EE5__getB8ue170006Ev, symObjAddr: 0x4EC0, symBinAddr: 0x10000FC54, symSize: 0x14 }
  - { offsetInCU: 0x1C4B3, offset: 0x4C07B, size: 0x8, addend: 0x0, symName: __ZNSt3__116allocator_traitsINS_9allocatorIPNS_16__hash_node_baseIPNS_11__hash_nodeINS_17__hash_value_typeINS_12basic_stringIcNS_11char_traitsIcEENS1_IcEEEEdEEPvEEEEEEE10deallocateB8ue170006ERSG_PSF_m, symObjAddr: 0x4ED4, symBinAddr: 0x10000FC68, symSize: 0x34 }
  - { offsetInCU: 0x1C4F4, offset: 0x4C0BC, size: 0x8, addend: 0x0, symName: __ZNSt3__125__bucket_list_deallocatorINS_9allocatorIPNS_16__hash_node_baseIPNS_11__hash_nodeINS_17__hash_value_typeINS_12basic_stringIcNS_11char_traitsIcEENS1_IcEEEEdEEPvEEEEEEE7__allocB8ue170006Ev, symObjAddr: 0x4F08, symBinAddr: 0x10000FC9C, symSize: 0x24 }
  - { offsetInCU: 0x1C518, offset: 0x4C0E0, size: 0x8, addend: 0x0, symName: __ZNSt3__125__bucket_list_deallocatorINS_9allocatorIPNS_16__hash_node_baseIPNS_11__hash_nodeINS_17__hash_value_typeINS_12basic_stringIcNS_11char_traitsIcEENS1_IcEEEEdEEPvEEEEEEE4sizeB8ue170006Ev, symObjAddr: 0x4F2C, symBinAddr: 0x10000FCC0, symSize: 0x24 }
  - { offsetInCU: 0x1C53C, offset: 0x4C104, size: 0x8, addend: 0x0, symName: __ZNSt3__19allocatorIPNS_16__hash_node_baseIPNS_11__hash_nodeINS_17__hash_value_typeINS_12basic_stringIcNS_11char_traitsIcEENS0_IcEEEEdEEPvEEEEE10deallocateB8ue170006EPSE_m, symObjAddr: 0x4F50, symBinAddr: 0x10000FCE4, symSize: 0x40 }
  - { offsetInCU: 0x1C57C, offset: 0x4C144, size: 0x8, addend: 0x0, symName: __ZNSt3__117__compressed_pairImNS_9allocatorIPNS_16__hash_node_baseIPNS_11__hash_nodeINS_17__hash_value_typeINS_12basic_stringIcNS_11char_traitsIcEENS1_IcEEEEdEEPvEEEEEEE6secondB8ue170006Ev, symObjAddr: 0x4F90, symBinAddr: 0x10000FD24, symSize: 0x24 }
  - { offsetInCU: 0x1C5A0, offset: 0x4C168, size: 0x8, addend: 0x0, symName: __ZNSt3__122__compressed_pair_elemINS_9allocatorIPNS_16__hash_node_baseIPNS_11__hash_nodeINS_17__hash_value_typeINS_12basic_stringIcNS_11char_traitsIcEENS1_IcEEEEdEEPvEEEEEELi1ELb1EE5__getB8ue170006Ev, symObjAddr: 0x4FB4, symBinAddr: 0x10000FD48, symSize: 0x14 }
  - { offsetInCU: 0x1C5C4, offset: 0x4C18C, size: 0x8, addend: 0x0, symName: __ZNSt3__117__compressed_pairImNS_9allocatorIPNS_16__hash_node_baseIPNS_11__hash_nodeINS_17__hash_value_typeINS_12basic_stringIcNS_11char_traitsIcEENS1_IcEEEEdEEPvEEEEEEE5firstB8ue170006Ev, symObjAddr: 0x4FC8, symBinAddr: 0x10000FD5C, symSize: 0x24 }
  - { offsetInCU: 0x1C5E8, offset: 0x4C1B0, size: 0x8, addend: 0x0, symName: __ZNSt3__113unordered_mapINS_12basic_stringIcNS_11char_traitsIcEENS_9allocatorIcEEEE9RateCurveNS_4hashIS6_EENS_8equal_toIS6_EENS4_INS_4pairIKS6_S7_EEEEED2B8ue170006Ev, symObjAddr: 0x5000, symBinAddr: 0x10000FD80, symSize: 0x2C }
  - { offsetInCU: 0x1C610, offset: 0x4C1D8, size: 0x8, addend: 0x0, symName: __ZNSt3__112__hash_tableINS_17__hash_value_typeINS_12basic_stringIcNS_11char_traitsIcEENS_9allocatorIcEEEE9RateCurveEENS_22__unordered_map_hasherIS7_S9_NS_4hashIS7_EENS_8equal_toIS7_EELb1EEENS_21__unordered_map_equalIS7_S9_SE_SC_Lb1EEENS5_IS9_EEED1Ev, symObjAddr: 0x502C, symBinAddr: 0x10000FDAC, symSize: 0x2C }
  - { offsetInCU: 0x1C63B, offset: 0x4C203, size: 0x8, addend: 0x0, symName: __ZNSt3__112__hash_tableINS_17__hash_value_typeINS_12basic_stringIcNS_11char_traitsIcEENS_9allocatorIcEEEE9RateCurveEENS_22__unordered_map_hasherIS7_S9_NS_4hashIS7_EENS_8equal_toIS7_EELb1EEENS_21__unordered_map_equalIS7_S9_SE_SC_Lb1EEENS5_IS9_EEED2Ev, symObjAddr: 0x5058, symBinAddr: 0x10000FDD8, symSize: 0x48 }
  - { offsetInCU: 0x1C666, offset: 0x4C22E, size: 0x8, addend: 0x0, symName: __ZNSt3__112__hash_tableINS_17__hash_value_typeINS_12basic_stringIcNS_11char_traitsIcEENS_9allocatorIcEEEE9RateCurveEENS_22__unordered_map_hasherIS7_S9_NS_4hashIS7_EENS_8equal_toIS7_EELb1EEENS_21__unordered_map_equalIS7_S9_SE_SC_Lb1EEENS5_IS9_EEE17__deallocate_nodeEPNS_16__hash_node_baseIPNS_11__hash_nodeIS9_PvEEEE, symObjAddr: 0x50A0, symBinAddr: 0x10000FE20, symSize: 0xA8 }
  - { offsetInCU: 0x1C6CE, offset: 0x4C296, size: 0x8, addend: 0x0, symName: __ZNSt3__110unique_ptrIA_PNS_16__hash_node_baseIPNS_11__hash_nodeINS_17__hash_value_typeINS_12basic_stringIcNS_11char_traitsIcEENS_9allocatorIcEEEE9RateCurveEEPvEEEENS_25__bucket_list_deallocatorINS7_ISG_EEEEED1B8ue170006Ev, symObjAddr: 0x516C, symBinAddr: 0x10000FEC8, symSize: 0x2C }
  - { offsetInCU: 0x1C6F6, offset: 0x4C2BE, size: 0x8, addend: 0x0, symName: __ZNSt3__110unique_ptrIA_PNS_16__hash_node_baseIPNS_11__hash_nodeINS_17__hash_value_typeINS_12basic_stringIcNS_11char_traitsIcEENS_9allocatorIcEEEE9RateCurveEEPvEEEENS_25__bucket_list_deallocatorINS7_ISG_EEEEED2B8ue170006Ev, symObjAddr: 0x5950, symBinAddr: 0x10000FEF4, symSize: 0x30 }
  - { offsetInCU: 0x1C71E, offset: 0x4C2E6, size: 0x8, addend: 0x0, symName: __ZNSt3__110unique_ptrIA_PNS_16__hash_node_baseIPNS_11__hash_nodeINS_17__hash_value_typeINS_12basic_stringIcNS_11char_traitsIcEENS_9allocatorIcEEEE9RateCurveEEPvEEEENS_25__bucket_list_deallocatorINS7_ISG_EEEEE5resetB8ue170006EDn, symObjAddr: 0x5980, symBinAddr: 0x10000FF24, symSize: 0x6C }
  - { offsetInCU: 0x1C75D, offset: 0x4C325, size: 0x8, addend: 0x0, symName: __ZNSt3__113unordered_mapINS_12basic_stringIcNS_11char_traitsIcEENS_9allocatorIcEEEE8VolCurveNS_4hashIS6_EENS_8equal_toIS6_EENS4_INS_4pairIKS6_S7_EEEEED2B8ue170006Ev, symObjAddr: 0x5BD0, symBinAddr: 0x10000FF90, symSize: 0x2C }
  - { offsetInCU: 0x1C785, offset: 0x4C34D, size: 0x8, addend: 0x0, symName: __ZNSt3__112__hash_tableINS_17__hash_value_typeINS_12basic_stringIcNS_11char_traitsIcEENS_9allocatorIcEEEE8VolCurveEENS_22__unordered_map_hasherIS7_S9_NS_4hashIS7_EENS_8equal_toIS7_EELb1EEENS_21__unordered_map_equalIS7_S9_SE_SC_Lb1EEENS5_IS9_EEED1Ev, symObjAddr: 0x5BFC, symBinAddr: 0x10000FFBC, symSize: 0x2C }
  - { offsetInCU: 0x1C7B0, offset: 0x4C378, size: 0x8, addend: 0x0, symName: __ZNSt3__112__hash_tableINS_17__hash_value_typeINS_12basic_stringIcNS_11char_traitsIcEENS_9allocatorIcEEEE8VolCurveEENS_22__unordered_map_hasherIS7_S9_NS_4hashIS7_EENS_8equal_toIS7_EELb1EEENS_21__unordered_map_equalIS7_S9_SE_SC_Lb1EEENS5_IS9_EEED2Ev, symObjAddr: 0x5C28, symBinAddr: 0x10000FFE8, symSize: 0x48 }
  - { offsetInCU: 0x1C7DB, offset: 0x4C3A3, size: 0x8, addend: 0x0, symName: __ZNSt3__112__hash_tableINS_17__hash_value_typeINS_12basic_stringIcNS_11char_traitsIcEENS_9allocatorIcEEEE8VolCurveEENS_22__unordered_map_hasherIS7_S9_NS_4hashIS7_EENS_8equal_toIS7_EELb1EEENS_21__unordered_map_equalIS7_S9_SE_SC_Lb1EEENS5_IS9_EEE17__deallocate_nodeEPNS_16__hash_node_baseIPNS_11__hash_nodeIS9_PvEEEE, symObjAddr: 0x5C70, symBinAddr: 0x100010030, symSize: 0xA8 }
  - { offsetInCU: 0x1C843, offset: 0x4C40B, size: 0x8, addend: 0x0, symName: __ZNSt3__117__compressed_pairINS_16__hash_node_baseIPNS_11__hash_nodeINS_17__hash_value_typeINS_12basic_stringIcNS_11char_traitsIcEENS_9allocatorIcEEEE8VolCurveEEPvEEEENS7_ISD_EEE5firstB8ue170006Ev, symObjAddr: 0x5D18, symBinAddr: 0x1000100D8, symSize: 0x24 }
  - { offsetInCU: 0x1C867, offset: 0x4C42F, size: 0x8, addend: 0x0, symName: __ZNSt3__110unique_ptrIA_PNS_16__hash_node_baseIPNS_11__hash_nodeINS_17__hash_value_typeINS_12basic_stringIcNS_11char_traitsIcEENS_9allocatorIcEEEE8VolCurveEEPvEEEENS_25__bucket_list_deallocatorINS7_ISG_EEEEED1B8ue170006Ev, symObjAddr: 0x5D3C, symBinAddr: 0x1000100FC, symSize: 0x2C }
  - { offsetInCU: 0x1C88F, offset: 0x4C457, size: 0x8, addend: 0x0, symName: __ZNSt3__112__hash_tableINS_17__hash_value_typeINS_12basic_stringIcNS_11char_traitsIcEENS_9allocatorIcEEEE8VolCurveEENS_22__unordered_map_hasherIS7_S9_NS_4hashIS7_EENS_8equal_toIS7_EELb1EEENS_21__unordered_map_equalIS7_S9_SE_SC_Lb1EEENS5_IS9_EEE12__node_allocB8ue170006Ev, symObjAddr: 0x5D68, symBinAddr: 0x100010128, symSize: 0x28 }
  - { offsetInCU: 0x1C8B3, offset: 0x4C47B, size: 0x8, addend: 0x0, symName: __ZNSt3__116allocator_traitsINS_9allocatorINS_11__hash_nodeINS_17__hash_value_typeINS_12basic_stringIcNS_11char_traitsIcEENS1_IcEEEE8VolCurveEEPvEEEEE7destroyB8ue170006INS_4pairIKS8_S9_EEvvEEvRSD_PT_, symObjAddr: 0x5DB4, symBinAddr: 0x100010150, symSize: 0x28 }
  - { offsetInCU: 0x1C8EF, offset: 0x4C4B7, size: 0x8, addend: 0x0, symName: __ZNSt3__122__hash_key_value_typesINS_17__hash_value_typeINS_12basic_stringIcNS_11char_traitsIcEENS_9allocatorIcEEEE8VolCurveEEE9__get_ptrB8ue170006ERS9_, symObjAddr: 0x5DDC, symBinAddr: 0x100010178, symSize: 0x24 }
  - { offsetInCU: 0x1C911, offset: 0x4C4D9, size: 0x8, addend: 0x0, symName: __ZNSt3__116allocator_traitsINS_9allocatorINS_11__hash_nodeINS_17__hash_value_typeINS_12basic_stringIcNS_11char_traitsIcEENS1_IcEEEE8VolCurveEEPvEEEEE10deallocateB8ue170006ERSD_PSC_m, symObjAddr: 0x5E00, symBinAddr: 0x10001019C, symSize: 0x34 }
  - { offsetInCU: 0x1C952, offset: 0x4C51A, size: 0x8, addend: 0x0, symName: __ZNSt3__117__compressed_pairINS_16__hash_node_baseIPNS_11__hash_nodeINS_17__hash_value_typeINS_12basic_stringIcNS_11char_traitsIcEENS_9allocatorIcEEEE8VolCurveEEPvEEEENS7_ISD_EEE6secondB8ue170006Ev, symObjAddr: 0x5E34, symBinAddr: 0x1000101D0, symSize: 0x24 }
  - { offsetInCU: 0x1C976, offset: 0x4C53E, size: 0x8, addend: 0x0, symName: __ZNSt3__122__compressed_pair_elemINS_9allocatorINS_11__hash_nodeINS_17__hash_value_typeINS_12basic_stringIcNS_11char_traitsIcEENS1_IcEEEE8VolCurveEEPvEEEELi1ELb1EE5__getB8ue170006Ev, symObjAddr: 0x5E58, symBinAddr: 0x1000101F4, symSize: 0x14 }
  - { offsetInCU: 0x1C99A, offset: 0x4C562, size: 0x8, addend: 0x0, symName: __ZNSt3__117__hash_value_typeINS_12basic_stringIcNS_11char_traitsIcEENS_9allocatorIcEEEE8VolCurveE11__get_valueB8ue170006Ev, symObjAddr: 0x5F54, symBinAddr: 0x100010208, symSize: 0x24 }
  - { offsetInCU: 0x1C9BE, offset: 0x4C586, size: 0x8, addend: 0x0, symName: __ZNSt3__19allocatorINS_11__hash_nodeINS_17__hash_value_typeINS_12basic_stringIcNS_11char_traitsIcEENS0_IcEEEE8VolCurveEEPvEEE10deallocateB8ue170006EPSB_m, symObjAddr: 0x5FB0, symBinAddr: 0x100010264, symSize: 0x44 }
  - { offsetInCU: 0x1C9FE, offset: 0x4C5C6, size: 0x8, addend: 0x0, symName: __ZNSt3__122__compressed_pair_elemINS_16__hash_node_baseIPNS_11__hash_nodeINS_17__hash_value_typeINS_12basic_stringIcNS_11char_traitsIcEENS_9allocatorIcEEEE8VolCurveEEPvEEEELi0ELb0EE5__getB8ue170006Ev, symObjAddr: 0x5FF4, symBinAddr: 0x1000102A8, symSize: 0x14 }
  - { offsetInCU: 0x1CA22, offset: 0x4C5EA, size: 0x8, addend: 0x0, symName: __ZNSt3__110unique_ptrIA_PNS_16__hash_node_baseIPNS_11__hash_nodeINS_17__hash_value_typeINS_12basic_stringIcNS_11char_traitsIcEENS_9allocatorIcEEEE8VolCurveEEPvEEEENS_25__bucket_list_deallocatorINS7_ISG_EEEEED2B8ue170006Ev, symObjAddr: 0x6008, symBinAddr: 0x1000102BC, symSize: 0x30 }
  - { offsetInCU: 0x1CA4A, offset: 0x4C612, size: 0x8, addend: 0x0, symName: __ZNSt3__110unique_ptrIA_PNS_16__hash_node_baseIPNS_11__hash_nodeINS_17__hash_value_typeINS_12basic_stringIcNS_11char_traitsIcEENS_9allocatorIcEEEE8VolCurveEEPvEEEENS_25__bucket_list_deallocatorINS7_ISG_EEEEE5resetB8ue170006EDn, symObjAddr: 0x6038, symBinAddr: 0x1000102EC, symSize: 0x6C }
  - { offsetInCU: 0x1CA89, offset: 0x4C651, size: 0x8, addend: 0x0, symName: __ZNSt3__117__compressed_pairIPPNS_16__hash_node_baseIPNS_11__hash_nodeINS_17__hash_value_typeINS_12basic_stringIcNS_11char_traitsIcEENS_9allocatorIcEEEE8VolCurveEEPvEEEENS_25__bucket_list_deallocatorINS7_ISG_EEEEE5firstB8ue170006Ev, symObjAddr: 0x60A4, symBinAddr: 0x100010358, symSize: 0x24 }
  - { offsetInCU: 0x1CAAD, offset: 0x4C675, size: 0x8, addend: 0x0, symName: __ZNSt3__117__compressed_pairIPPNS_16__hash_node_baseIPNS_11__hash_nodeINS_17__hash_value_typeINS_12basic_stringIcNS_11char_traitsIcEENS_9allocatorIcEEEE8VolCurveEEPvEEEENS_25__bucket_list_deallocatorINS7_ISG_EEEEE6secondB8ue170006Ev, symObjAddr: 0x60C8, symBinAddr: 0x10001037C, symSize: 0x28 }
  - { offsetInCU: 0x1CAD1, offset: 0x4C699, size: 0x8, addend: 0x0, symName: __ZNSt3__125__bucket_list_deallocatorINS_9allocatorIPNS_16__hash_node_baseIPNS_11__hash_nodeINS_17__hash_value_typeINS_12basic_stringIcNS_11char_traitsIcEENS1_IcEEEE8VolCurveEEPvEEEEEEEclB8ue170006EPSG_, symObjAddr: 0x60F0, symBinAddr: 0x1000103A4, symSize: 0x58 }
  - { offsetInCU: 0x1CB04, offset: 0x4C6CC, size: 0x8, addend: 0x0, symName: __ZNSt3__122__compressed_pair_elemIPPNS_16__hash_node_baseIPNS_11__hash_nodeINS_17__hash_value_typeINS_12basic_stringIcNS_11char_traitsIcEENS_9allocatorIcEEEE8VolCurveEEPvEEEELi0ELb0EE5__getB8ue170006Ev, symObjAddr: 0x6148, symBinAddr: 0x1000103FC, symSize: 0x14 }
  - { offsetInCU: 0x1CB28, offset: 0x4C6F0, size: 0x8, addend: 0x0, symName: __ZNSt3__122__compressed_pair_elemINS_25__bucket_list_deallocatorINS_9allocatorIPNS_16__hash_node_baseIPNS_11__hash_nodeINS_17__hash_value_typeINS_12basic_stringIcNS_11char_traitsIcEENS2_IcEEEE8VolCurveEEPvEEEEEEEELi1ELb0EE5__getB8ue170006Ev, symObjAddr: 0x615C, symBinAddr: 0x100010410, symSize: 0x14 }
  - { offsetInCU: 0x1CB4C, offset: 0x4C714, size: 0x8, addend: 0x0, symName: __ZNSt3__116allocator_traitsINS_9allocatorIPNS_16__hash_node_baseIPNS_11__hash_nodeINS_17__hash_value_typeINS_12basic_stringIcNS_11char_traitsIcEENS1_IcEEEE8VolCurveEEPvEEEEEEE10deallocateB8ue170006ERSH_PSG_m, symObjAddr: 0x6170, symBinAddr: 0x100010424, symSize: 0x34 }
  - { offsetInCU: 0x1CB8D, offset: 0x4C755, size: 0x8, addend: 0x0, symName: __ZNSt3__125__bucket_list_deallocatorINS_9allocatorIPNS_16__hash_node_baseIPNS_11__hash_nodeINS_17__hash_value_typeINS_12basic_stringIcNS_11char_traitsIcEENS1_IcEEEE8VolCurveEEPvEEEEEEE7__allocB8ue170006Ev, symObjAddr: 0x61A4, symBinAddr: 0x100010458, symSize: 0x24 }
  - { offsetInCU: 0x1CBB1, offset: 0x4C779, size: 0x8, addend: 0x0, symName: __ZNSt3__125__bucket_list_deallocatorINS_9allocatorIPNS_16__hash_node_baseIPNS_11__hash_nodeINS_17__hash_value_typeINS_12basic_stringIcNS_11char_traitsIcEENS1_IcEEEE8VolCurveEEPvEEEEEEE4sizeB8ue170006Ev, symObjAddr: 0x61C8, symBinAddr: 0x10001047C, symSize: 0x24 }
  - { offsetInCU: 0x1CBD5, offset: 0x4C79D, size: 0x8, addend: 0x0, symName: __ZNSt3__19allocatorIPNS_16__hash_node_baseIPNS_11__hash_nodeINS_17__hash_value_typeINS_12basic_stringIcNS_11char_traitsIcEENS0_IcEEEE8VolCurveEEPvEEEEE10deallocateB8ue170006EPSF_m, symObjAddr: 0x61EC, symBinAddr: 0x1000104A0, symSize: 0x40 }
  - { offsetInCU: 0x1CC15, offset: 0x4C7DD, size: 0x8, addend: 0x0, symName: __ZNSt3__117__compressed_pairImNS_9allocatorIPNS_16__hash_node_baseIPNS_11__hash_nodeINS_17__hash_value_typeINS_12basic_stringIcNS_11char_traitsIcEENS1_IcEEEE8VolCurveEEPvEEEEEEE6secondB8ue170006Ev, symObjAddr: 0x622C, symBinAddr: 0x1000104E0, symSize: 0x24 }
  - { offsetInCU: 0x1CC39, offset: 0x4C801, size: 0x8, addend: 0x0, symName: __ZNSt3__122__compressed_pair_elemINS_9allocatorIPNS_16__hash_node_baseIPNS_11__hash_nodeINS_17__hash_value_typeINS_12basic_stringIcNS_11char_traitsIcEENS1_IcEEEE8VolCurveEEPvEEEEEELi1ELb1EE5__getB8ue170006Ev, symObjAddr: 0x6250, symBinAddr: 0x100010504, symSize: 0x14 }
  - { offsetInCU: 0x1CC5D, offset: 0x4C825, size: 0x8, addend: 0x0, symName: __ZNSt3__117__compressed_pairImNS_9allocatorIPNS_16__hash_node_baseIPNS_11__hash_nodeINS_17__hash_value_typeINS_12basic_stringIcNS_11char_traitsIcEENS1_IcEEEE8VolCurveEEPvEEEEEEE5firstB8ue170006Ev, symObjAddr: 0x6264, symBinAddr: 0x100010518, symSize: 0x24 }
  - { offsetInCU: 0x1CC81, offset: 0x4C849, size: 0x8, addend: 0x0, symName: __ZNSt3__112basic_stringIcNS_11char_traitsIcEENS_9allocatorIcEEEC2B8ue170006Ev, symObjAddr: 0x6288, symBinAddr: 0x10001053C, symSize: 0x48 }
  - { offsetInCU: 0x1CCA9, offset: 0x4C871, size: 0x8, addend: 0x0, symName: __ZNSt3__112basic_stringIcNS_11char_traitsIcEENS_9allocatorIcEEE14__default_initB8ue170006Ev, symObjAddr: 0x62D0, symBinAddr: 0x100010584, symSize: 0x40 }
  - { offsetInCU: 0x1CCCD, offset: 0x4C895, size: 0x8, addend: 0x0, symName: __ZNSt3__19basic_iosIcNS_11char_traitsIcEEEC2B8ue170006Ev, symObjAddr: 0x6348, symBinAddr: 0x1000105C4, symSize: 0x44 }
  - { offsetInCU: 0x1CCF5, offset: 0x4C8BD, size: 0x8, addend: 0x0, symName: __ZNSt3__113basic_istreamIcNS_11char_traitsIcEEEC2B8ue170006EPNS_15basic_streambufIcS2_EE, symObjAddr: 0x638C, symBinAddr: 0x100010608, symSize: 0x64 }
  - { offsetInCU: 0x1CD37, offset: 0x4C8FF, size: 0x8, addend: 0x0, symName: __ZNSt3__113basic_filebufIcNS_11char_traitsIcEEE4openERKNS_12basic_stringIcS2_NS_9allocatorIcEEEEj, symObjAddr: 0x63F0, symBinAddr: 0x10001066C, symSize: 0x44 }
  - { offsetInCU: 0x1CD79, offset: 0x4C941, size: 0x8, addend: 0x0, symName: __ZNSt3__18ios_baseC2B8ue170006Ev, symObjAddr: 0x6460, symBinAddr: 0x1000106B0, symSize: 0x24 }
  - { offsetInCU: 0x1CDA1, offset: 0x4C969, size: 0x8, addend: 0x0, symName: __ZNSt3__19basic_iosIcNS_11char_traitsIcEEE4initB8ue170006EPNS_15basic_streambufIcS2_EE, symObjAddr: 0x6484, symBinAddr: 0x1000106D4, symSize: 0x44 }
  - { offsetInCU: 0x1CDD6, offset: 0x4C99E, size: 0x8, addend: 0x0, symName: __ZNKSt3__112basic_stringIcNS_11char_traitsIcEENS_9allocatorIcEEE5c_strB8ue170006Ev, symObjAddr: 0x64D0, symBinAddr: 0x100010718, symSize: 0x24 }
  - { offsetInCU: 0x1CE18, offset: 0x4C9E0, size: 0x8, addend: 0x0, symName: __ZNKSt3__113basic_istreamIcNS_11char_traitsIcEEE6sentrycvbB8ue170006Ev, symObjAddr: 0x6948, symBinAddr: 0x100010974, symSize: 0x1C }
  - { offsetInCU: 0x1CE3C, offset: 0x4CA04, size: 0x8, addend: 0x0, symName: __ZNSt3__112basic_stringIcNS_11char_traitsIcEENS_9allocatorIcEEE5clearB8ue170006Ev, symObjAddr: 0x6964, symBinAddr: 0x100010990, symSize: 0x78 }
  - { offsetInCU: 0x1CE62, offset: 0x4CA2A, size: 0x8, addend: 0x0, symName: __ZNSt3__115basic_streambufIcNS_11char_traitsIcEEE6sbumpcB8ue170006Ev, symObjAddr: 0x6A00, symBinAddr: 0x100010A08, symSize: 0x78 }
  - { offsetInCU: 0x1CE86, offset: 0x4CA4E, size: 0x8, addend: 0x0, symName: __ZNSt3__111char_traitsIcE12to_char_typeB8ue170006Ei, symObjAddr: 0x6AA0, symBinAddr: 0x100010A80, symSize: 0x18 }
  - { offsetInCU: 0x1CEA8, offset: 0x4CA70, size: 0x8, addend: 0x0, symName: __ZNSt3__111char_traitsIcE2eqEcc, symObjAddr: 0x6AB8, symBinAddr: 0x100010A98, symSize: 0x28 }
  - { offsetInCU: 0x1CED8, offset: 0x4CAA0, size: 0x8, addend: 0x0, symName: __ZNKSt3__112basic_stringIcNS_11char_traitsIcEENS_9allocatorIcEEE8max_sizeB8ue170006Ev, symObjAddr: 0x6B34, symBinAddr: 0x100010AC0, symSize: 0xAC }
  - { offsetInCU: 0x1CF29, offset: 0x4CAF1, size: 0x8, addend: 0x0, symName: __ZNSt3__18ios_base18__setstate_nothrowB8ue170006Ej, symObjAddr: 0x6BE0, symBinAddr: 0x100010B6C, symSize: 0x64 }
  - { offsetInCU: 0x1CF5C, offset: 0x4CB24, size: 0x8, addend: 0x0, symName: __ZNKSt3__19basic_iosIcNS_11char_traitsIcEEE10exceptionsB8ue170006Ev, symObjAddr: 0x6C44, symBinAddr: 0x100010BD0, symSize: 0x24 }
  - { offsetInCU: 0x1CF80, offset: 0x4CB48, size: 0x8, addend: 0x0, symName: __ZNSt3__111char_traitsIcE6assignB8ue170006ERcRKc, symObjAddr: 0x6C68, symBinAddr: 0x100010BF4, symSize: 0x24 }
  - { offsetInCU: 0x1CFB0, offset: 0x4CB78, size: 0x8, addend: 0x0, symName: __ZNSt3__112basic_stringIcNS_11char_traitsIcEENS_9allocatorIcEEE15__set_long_sizeB8ue170006Em, symObjAddr: 0x6CB4, symBinAddr: 0x100010C18, symSize: 0x38 }
  - { offsetInCU: 0x1CFE3, offset: 0x4CBAB, size: 0x8, addend: 0x0, symName: __ZNSt3__112basic_stringIcNS_11char_traitsIcEENS_9allocatorIcEEE16__set_short_sizeB8ue170006Em, symObjAddr: 0x6D14, symBinAddr: 0x100010C50, symSize: 0x78 }
  - { offsetInCU: 0x1D016, offset: 0x4CBDE, size: 0x8, addend: 0x0, symName: __ZNSt3__111char_traitsIcE11to_int_typeB8ue170006Ec, symObjAddr: 0x6DB8, symBinAddr: 0x100010CC8, symSize: 0x14 }
  - { offsetInCU: 0x1D043, offset: 0x4CC0B, size: 0x8, addend: 0x0, symName: __ZNSt3__116allocator_traitsINS_9allocatorIcEEE8max_sizeB8ue170006IS2_vEEmRKS2_, symObjAddr: 0x6E28, symBinAddr: 0x100010CDC, symSize: 0x24 }
  - { offsetInCU: 0x1D071, offset: 0x4CC39, size: 0x8, addend: 0x0, symName: __ZNKSt3__112basic_stringIcNS_11char_traitsIcEENS_9allocatorIcEEE7__allocB8ue170006Ev, symObjAddr: 0x6E4C, symBinAddr: 0x100010D00, symSize: 0x24 }
  - { offsetInCU: 0x1D095, offset: 0x4CC5D, size: 0x8, addend: 0x0, symName: __ZNSt3__114numeric_limitsImE3maxB8ue170006Ev, symObjAddr: 0x6E70, symBinAddr: 0x100010D24, symSize: 0x14 }
  - { offsetInCU: 0x1D0A9, offset: 0x4CC71, size: 0x8, addend: 0x0, symName: __ZNKSt3__19allocatorIcE8max_sizeB8ue170006Ev, symObjAddr: 0x6E84, symBinAddr: 0x100010D38, symSize: 0x14 }
  - { offsetInCU: 0x1D0CD, offset: 0x4CC95, size: 0x8, addend: 0x0, symName: __ZNKSt3__117__compressed_pairINS_12basic_stringIcNS_11char_traitsIcEENS_9allocatorIcEEE5__repES5_E6secondB8ue170006Ev, symObjAddr: 0x6E98, symBinAddr: 0x100010D4C, symSize: 0x24 }
  - { offsetInCU: 0x1D0F1, offset: 0x4CCB9, size: 0x8, addend: 0x0, symName: __ZNKSt3__122__compressed_pair_elemINS_9allocatorIcEELi1ELb1EE5__getB8ue170006Ev, symObjAddr: 0x6EBC, symBinAddr: 0x100010D70, symSize: 0x14 }
  - { offsetInCU: 0x1D115, offset: 0x4CCDD, size: 0x8, addend: 0x0, symName: __ZNSt3__123__libcpp_numeric_limitsImLb1EE3maxB8ue170006Ev, symObjAddr: 0x6ED0, symBinAddr: 0x100010D84, symSize: 0x8 }
  - { offsetInCU: 0x1D128, offset: 0x4CCF0, size: 0x8, addend: 0x0, symName: __ZNKSt3__18ios_base10exceptionsB8ue170006Ev, symObjAddr: 0x6ED8, symBinAddr: 0x100010D8C, symSize: 0x18 }
  - { offsetInCU: 0x1D14E, offset: 0x4CD16, size: 0x8, addend: 0x0, symName: __ZNKSt3__19basic_iosIcNS_11char_traitsIcEEE4failB8ue170006Ev, symObjAddr: 0x6F54, symBinAddr: 0x100010DA4, symSize: 0x28 }
  - { offsetInCU: 0x1D172, offset: 0x4CD3A, size: 0x8, addend: 0x0, symName: __ZNKSt3__18ios_base4failB8ue170006Ev, symObjAddr: 0x6F7C, symBinAddr: 0x100010DCC, symSize: 0x28 }
  - { offsetInCU: 0x1D198, offset: 0x4CD60, size: 0x8, addend: 0x0, symName: __ZNSt3__16vectorIP5TradeNS_9allocatorIS2_EEEC2B8ue170006Ev, symObjAddr: 0x6FA4, symBinAddr: 0x100010DF4, symSize: 0x4C }
  - { offsetInCU: 0x1D1C0, offset: 0x4CD88, size: 0x8, addend: 0x0, symName: __ZNSt3__117__compressed_pairIPP5TradeNS_9allocatorIS2_EEEC1B8ue170006IDnNS_18__default_init_tagEEEOT_OT0_, symObjAddr: 0x6FF0, symBinAddr: 0x100010E40, symSize: 0x3C }
  - { offsetInCU: 0x1D216, offset: 0x4CDDE, size: 0x8, addend: 0x0, symName: __ZNSt3__117__compressed_pairIPP5TradeNS_9allocatorIS2_EEEC2B8ue170006IDnNS_18__default_init_tagEEEOT_OT0_, symObjAddr: 0x702C, symBinAddr: 0x100010E7C, symSize: 0x40 }
  - { offsetInCU: 0x1D26C, offset: 0x4CE34, size: 0x8, addend: 0x0, symName: __ZNSt3__122__compressed_pair_elemIPP5TradeLi0ELb0EEC2B8ue170006IDnvEEOT_, symObjAddr: 0x706C, symBinAddr: 0x100010EBC, symSize: 0x1C }
  - { offsetInCU: 0x1D2AD, offset: 0x4CE75, size: 0x8, addend: 0x0, symName: __ZNSt3__122__compressed_pair_elemINS_9allocatorIP5TradeEELi1ELb1EEC2B8ue170006ENS_18__default_init_tagE, symObjAddr: 0x7088, symBinAddr: 0x100010ED8, symSize: 0x2C }
  - { offsetInCU: 0x1D2DF, offset: 0x4CEA7, size: 0x8, addend: 0x0, symName: __ZNSt3__19allocatorIP5TradeEC2B8ue170006Ev, symObjAddr: 0x70B4, symBinAddr: 0x100010F04, symSize: 0x2C }
  - { offsetInCU: 0x1D307, offset: 0x4CECF, size: 0x8, addend: 0x0, symName: __ZNSt3__116__non_trivial_ifILb1ENS_9allocatorIP5TradeEEEC2B8ue170006Ev, symObjAddr: 0x70E0, symBinAddr: 0x100010F30, symSize: 0x14 }
  - { offsetInCU: 0x1D32F, offset: 0x4CEF7, size: 0x8, addend: 0x0, symName: __ZNSt3__16vectorIP5TradeNS_9allocatorIS2_EEED2B8ue170006Ev, symObjAddr: 0x70F4, symBinAddr: 0x100010F44, symSize: 0x44 }
  - { offsetInCU: 0x1D357, offset: 0x4CF1F, size: 0x8, addend: 0x0, symName: __ZNSt3__16vectorIP5TradeNS_9allocatorIS2_EEE16__destroy_vectorC1B8ue170006ERS5_, symObjAddr: 0x7138, symBinAddr: 0x100010F88, symSize: 0x34 }
  - { offsetInCU: 0x1D38E, offset: 0x4CF56, size: 0x8, addend: 0x0, symName: __ZNSt3__16vectorIP5TradeNS_9allocatorIS2_EEE16__destroy_vectorclB8ue170006Ev, symObjAddr: 0x716C, symBinAddr: 0x100010FBC, symSize: 0x90 }
  - { offsetInCU: 0x1D3B2, offset: 0x4CF7A, size: 0x8, addend: 0x0, symName: __ZNSt3__16vectorIP5TradeNS_9allocatorIS2_EEE16__destroy_vectorC2B8ue170006ERS5_, symObjAddr: 0x71FC, symBinAddr: 0x10001104C, symSize: 0x20 }
  - { offsetInCU: 0x1D3E9, offset: 0x4CFB1, size: 0x8, addend: 0x0, symName: __ZNSt3__16vectorIP5TradeNS_9allocatorIS2_EEE7__clearB8ue170006Ev, symObjAddr: 0x721C, symBinAddr: 0x10001106C, symSize: 0x28 }
  - { offsetInCU: 0x1D40D, offset: 0x4CFD5, size: 0x8, addend: 0x0, symName: __ZNKSt3__16vectorIP5TradeNS_9allocatorIS2_EEE17__annotate_deleteB8ue170006Ev, symObjAddr: 0x7244, symBinAddr: 0x100011094, symSize: 0xB8 }
  - { offsetInCU: 0x1D431, offset: 0x4CFF9, size: 0x8, addend: 0x0, symName: __ZNSt3__116allocator_traitsINS_9allocatorIP5TradeEEE10deallocateB8ue170006ERS4_PS3_m, symObjAddr: 0x72FC, symBinAddr: 0x10001114C, symSize: 0x34 }
  - { offsetInCU: 0x1D472, offset: 0x4D03A, size: 0x8, addend: 0x0, symName: __ZNSt3__16vectorIP5TradeNS_9allocatorIS2_EEE7__allocB8ue170006Ev, symObjAddr: 0x7330, symBinAddr: 0x100011180, symSize: 0x28 }
  - { offsetInCU: 0x1D496, offset: 0x4D05E, size: 0x8, addend: 0x0, symName: __ZNKSt3__16vectorIP5TradeNS_9allocatorIS2_EEE8capacityB8ue170006Ev, symObjAddr: 0x7358, symBinAddr: 0x1000111A8, symSize: 0x40 }
  - { offsetInCU: 0x1D4BA, offset: 0x4D082, size: 0x8, addend: 0x0, symName: __ZNSt3__16vectorIP5TradeNS_9allocatorIS2_EEE22__base_destruct_at_endB8ue170006EPS2_, symObjAddr: 0x7398, symBinAddr: 0x1000111E8, symSize: 0x8C }
  - { offsetInCU: 0x1D4FC, offset: 0x4D0C4, size: 0x8, addend: 0x0, symName: __ZNSt3__116allocator_traitsINS_9allocatorIP5TradeEEE7destroyB8ue170006IS3_vEEvRS4_PT_, symObjAddr: 0x7424, symBinAddr: 0x100011274, symSize: 0x2C }
  - { offsetInCU: 0x1D539, offset: 0x4D101, size: 0x8, addend: 0x0, symName: __ZNSt3__19allocatorIP5TradeE7destroyB8ue170006EPS2_, symObjAddr: 0x7464, symBinAddr: 0x1000112B4, symSize: 0x14 }
  - { offsetInCU: 0x1D56B, offset: 0x4D133, size: 0x8, addend: 0x0, symName: __ZNKSt3__16vectorIP5TradeNS_9allocatorIS2_EEE31__annotate_contiguous_containerB8ue170006EPKvS7_S7_S7_, symObjAddr: 0x7478, symBinAddr: 0x1000112C8, symSize: 0x20 }
  - { offsetInCU: 0x1D5BF, offset: 0x4D187, size: 0x8, addend: 0x0, symName: __ZNKSt3__16vectorIP5TradeNS_9allocatorIS2_EEE4dataB8ue170006Ev, symObjAddr: 0x7498, symBinAddr: 0x1000112E8, symSize: 0x28 }
  - { offsetInCU: 0x1D5E3, offset: 0x4D1AB, size: 0x8, addend: 0x0, symName: __ZNKSt3__16vectorIP5TradeNS_9allocatorIS2_EEE4sizeB8ue170006Ev, symObjAddr: 0x74C0, symBinAddr: 0x100011310, symSize: 0x28 }
  - { offsetInCU: 0x1D607, offset: 0x4D1CF, size: 0x8, addend: 0x0, symName: __ZNSt3__19allocatorIP5TradeE10deallocateB8ue170006EPS2_m, symObjAddr: 0x74E8, symBinAddr: 0x100011338, symSize: 0x40 }
  - { offsetInCU: 0x1D647, offset: 0x4D20F, size: 0x8, addend: 0x0, symName: __ZNSt3__117__compressed_pairIPP5TradeNS_9allocatorIS2_EEE6secondB8ue170006Ev, symObjAddr: 0x7528, symBinAddr: 0x100011378, symSize: 0x24 }
  - { offsetInCU: 0x1D66B, offset: 0x4D233, size: 0x8, addend: 0x0, symName: __ZNSt3__122__compressed_pair_elemINS_9allocatorIP5TradeEELi1ELb1EE5__getB8ue170006Ev, symObjAddr: 0x754C, symBinAddr: 0x10001139C, symSize: 0x14 }
  - { offsetInCU: 0x1D68F, offset: 0x4D257, size: 0x8, addend: 0x0, symName: __ZNKSt3__16vectorIP5TradeNS_9allocatorIS2_EEE9__end_capB8ue170006Ev, symObjAddr: 0x7560, symBinAddr: 0x1000113B0, symSize: 0x28 }
  - { offsetInCU: 0x1D6B3, offset: 0x4D27B, size: 0x8, addend: 0x0, symName: __ZNKSt3__117__compressed_pairIPP5TradeNS_9allocatorIS2_EEE5firstB8ue170006Ev, symObjAddr: 0x7588, symBinAddr: 0x1000113D8, symSize: 0x24 }
  - { offsetInCU: 0x1D6D7, offset: 0x4D29F, size: 0x8, addend: 0x0, symName: __ZNKSt3__122__compressed_pair_elemIPP5TradeLi0ELb0EE5__getB8ue170006Ev, symObjAddr: 0x75AC, symBinAddr: 0x1000113FC, symSize: 0x14 }
  - { offsetInCU: 0x1D6FB, offset: 0x4D2C3, size: 0x8, addend: 0x0, symName: __ZNSt3__16vectorIP5TradeNS_9allocatorIS2_EEE9__end_capB8ue170006Ev, symObjAddr: 0x75C0, symBinAddr: 0x100011410, symSize: 0x28 }
  - { offsetInCU: 0x1D71F, offset: 0x4D2E7, size: 0x8, addend: 0x0, symName: __ZNSt3__16vectorIP5TradeNS_9allocatorIS2_EEE22__construct_one_at_endB8ue170006IJRKS2_EEEvDpOT_, symObjAddr: 0x75E8, symBinAddr: 0x100011438, symSize: 0x90 }
  - { offsetInCU: 0x1D76D, offset: 0x4D335, size: 0x8, addend: 0x0, symName: __ZNSt3__16vectorIP5TradeNS_9allocatorIS2_EEE21__push_back_slow_pathIRKS2_EEvOT_, symObjAddr: 0x7678, symBinAddr: 0x1000114C8, symSize: 0xD8 }
  - { offsetInCU: 0x1D7C9, offset: 0x4D391, size: 0x8, addend: 0x0, symName: __ZNSt3__117__compressed_pairIPP5TradeNS_9allocatorIS2_EEE5firstB8ue170006Ev, symObjAddr: 0x7750, symBinAddr: 0x1000115A0, symSize: 0x24 }
  - { offsetInCU: 0x1D7ED, offset: 0x4D3B5, size: 0x8, addend: 0x0, symName: __ZNSt3__122__compressed_pair_elemIPP5TradeLi0ELb0EE5__getB8ue170006Ev, symObjAddr: 0x7774, symBinAddr: 0x1000115C4, symSize: 0x14 }
  - { offsetInCU: 0x1D82A, offset: 0x4D3F2, size: 0x8, addend: 0x0, symName: __ZNSt3__16vectorIP5TradeNS_9allocatorIS2_EEE21_ConstructTransactionC1B8ue170006ERS5_m, symObjAddr: 0x7788, symBinAddr: 0x1000115D8, symSize: 0x3C }
  - { offsetInCU: 0x1D870, offset: 0x4D438, size: 0x8, addend: 0x0, symName: __ZNSt3__116allocator_traitsINS_9allocatorIP5TradeEEE9constructB8ue170006IS3_JRKS3_EvEEvRS4_PT_DpOT0_, symObjAddr: 0x77C4, symBinAddr: 0x100011614, symSize: 0x34 }
  - { offsetInCU: 0x1D8C8, offset: 0x4D490, size: 0x8, addend: 0x0, symName: __ZNSt3__16vectorIP5TradeNS_9allocatorIS2_EEE21_ConstructTransactionD1B8ue170006Ev, symObjAddr: 0x77F8, symBinAddr: 0x100011648, symSize: 0x2C }
  - { offsetInCU: 0x1D8F0, offset: 0x4D4B8, size: 0x8, addend: 0x0, symName: __ZNSt3__16vectorIP5TradeNS_9allocatorIS2_EEE21_ConstructTransactionC2B8ue170006ERS5_m, symObjAddr: 0x7824, symBinAddr: 0x100011674, symSize: 0x44 }
  - { offsetInCU: 0x1D936, offset: 0x4D4FE, size: 0x8, addend: 0x0, symName: __ZNSt3__19allocatorIP5TradeE9constructB8ue170006IS2_JRKS2_EEEvPT_DpOT0_, symObjAddr: 0x7868, symBinAddr: 0x1000116B8, symSize: 0x28 }
  - { offsetInCU: 0x1D98B, offset: 0x4D553, size: 0x8, addend: 0x0, symName: __ZNSt3__16vectorIP5TradeNS_9allocatorIS2_EEE21_ConstructTransactionD2B8ue170006Ev, symObjAddr: 0x7890, symBinAddr: 0x1000116E0, symSize: 0x20 }
  - { offsetInCU: 0x1D9B3, offset: 0x4D57B, size: 0x8, addend: 0x0, symName: __ZNKSt3__16vectorIP5TradeNS_9allocatorIS2_EEE11__recommendB8ue170006Em, symObjAddr: 0x78B0, symBinAddr: 0x100011700, symSize: 0xB4 }
  - { offsetInCU: 0x1DA06, offset: 0x4D5CE, size: 0x8, addend: 0x0, symName: __ZNSt3__114__split_bufferIP5TradeRNS_9allocatorIS2_EEEC1EmmS5_, symObjAddr: 0x7964, symBinAddr: 0x1000117B4, symSize: 0x44 }
  - { offsetInCU: 0x1DA5B, offset: 0x4D623, size: 0x8, addend: 0x0, symName: __ZNSt3__114__split_bufferIP5TradeRNS_9allocatorIS2_EEED1Ev, symObjAddr: 0x7AB8, symBinAddr: 0x100011908, symSize: 0x2C }
  - { offsetInCU: 0x1DA86, offset: 0x4D64E, size: 0x8, addend: 0x0, symName: __ZNKSt3__16vectorIP5TradeNS_9allocatorIS2_EEE8max_sizeEv, symObjAddr: 0x7AE4, symBinAddr: 0x100011934, symSize: 0x60 }
  - { offsetInCU: 0x1DAAC, offset: 0x4D674, size: 0x8, addend: 0x0, symName: __ZNKSt3__16vectorIP5TradeNS_9allocatorIS2_EEE20__throw_length_errorB8ue170006Ev, symObjAddr: 0x7B44, symBinAddr: 0x100011994, symSize: 0x1C }
  - { offsetInCU: 0x1DADA, offset: 0x4D6A2, size: 0x8, addend: 0x0, symName: __ZNSt3__116allocator_traitsINS_9allocatorIP5TradeEEE8max_sizeB8ue170006IS4_vEEmRKS4_, symObjAddr: 0x7B60, symBinAddr: 0x1000119B0, symSize: 0x24 }
  - { offsetInCU: 0x1DB08, offset: 0x4D6D0, size: 0x8, addend: 0x0, symName: __ZNKSt3__16vectorIP5TradeNS_9allocatorIS2_EEE7__allocB8ue170006Ev, symObjAddr: 0x7B84, symBinAddr: 0x1000119D4, symSize: 0x28 }
  - { offsetInCU: 0x1DB2C, offset: 0x4D6F4, size: 0x8, addend: 0x0, symName: __ZNKSt3__19allocatorIP5TradeE8max_sizeB8ue170006Ev, symObjAddr: 0x7BAC, symBinAddr: 0x1000119FC, symSize: 0x14 }
  - { offsetInCU: 0x1DB50, offset: 0x4D718, size: 0x8, addend: 0x0, symName: __ZNKSt3__117__compressed_pairIPP5TradeNS_9allocatorIS2_EEE6secondB8ue170006Ev, symObjAddr: 0x7BC0, symBinAddr: 0x100011A10, symSize: 0x24 }
  - { offsetInCU: 0x1DB74, offset: 0x4D73C, size: 0x8, addend: 0x0, symName: __ZNKSt3__122__compressed_pair_elemINS_9allocatorIP5TradeEELi1ELb1EE5__getB8ue170006Ev, symObjAddr: 0x7BE4, symBinAddr: 0x100011A34, symSize: 0x14 }
  - { offsetInCU: 0x1DB98, offset: 0x4D760, size: 0x8, addend: 0x0, symName: __ZNSt3__114__split_bufferIP5TradeRNS_9allocatorIS2_EEEC2EmmS5_, symObjAddr: 0x7BF8, symBinAddr: 0x100011A48, symSize: 0xD4 }
  - { offsetInCU: 0x1DC0B, offset: 0x4D7D3, size: 0x8, addend: 0x0, symName: __ZNSt3__117__compressed_pairIPP5TradeRNS_9allocatorIS2_EEEC1B8ue170006IDnS6_EEOT_OT0_, symObjAddr: 0x7CCC, symBinAddr: 0x100011B1C, symSize: 0x3C }
  - { offsetInCU: 0x1DC61, offset: 0x4D829, size: 0x8, addend: 0x0, symName: __ZNSt3__114__split_bufferIP5TradeRNS_9allocatorIS2_EEE7__allocB8ue170006Ev, symObjAddr: 0x7D48, symBinAddr: 0x100011B98, symSize: 0x28 }
  - { offsetInCU: 0x1DC85, offset: 0x4D84D, size: 0x8, addend: 0x0, symName: __ZNSt3__114__split_bufferIP5TradeRNS_9allocatorIS2_EEE9__end_capB8ue170006Ev, symObjAddr: 0x7D70, symBinAddr: 0x100011BC0, symSize: 0x28 }
  - { offsetInCU: 0x1DCA9, offset: 0x4D871, size: 0x8, addend: 0x0, symName: __ZNSt3__117__compressed_pairIPP5TradeRNS_9allocatorIS2_EEEC2B8ue170006IDnS6_EEOT_OT0_, symObjAddr: 0x7D98, symBinAddr: 0x100011BE8, symSize: 0x48 }
  - { offsetInCU: 0x1DCFF, offset: 0x4D8C7, size: 0x8, addend: 0x0, symName: __ZNSt3__122__compressed_pair_elemIRNS_9allocatorIP5TradeEELi1ELb0EEC2B8ue170006IS5_vEEOT_, symObjAddr: 0x7DE0, symBinAddr: 0x100011C30, symSize: 0x20 }
  - { offsetInCU: 0x1DD40, offset: 0x4D908, size: 0x8, addend: 0x0, symName: __ZNSt3__19allocatorIP5TradeE8allocateB8ue170006Em, symObjAddr: 0x7E00, symBinAddr: 0x100011C50, symSize: 0x58 }
  - { offsetInCU: 0x1DD72, offset: 0x4D93A, size: 0x8, addend: 0x0, symName: __ZNSt3__117__compressed_pairIPP5TradeRNS_9allocatorIS2_EEE6secondB8ue170006Ev, symObjAddr: 0x7E58, symBinAddr: 0x100011CA8, symSize: 0x28 }
  - { offsetInCU: 0x1DD96, offset: 0x4D95E, size: 0x8, addend: 0x0, symName: __ZNSt3__122__compressed_pair_elemIRNS_9allocatorIP5TradeEELi1ELb0EE5__getB8ue170006Ev, symObjAddr: 0x7E80, symBinAddr: 0x100011CD0, symSize: 0x18 }
  - { offsetInCU: 0x1DDBA, offset: 0x4D982, size: 0x8, addend: 0x0, symName: __ZNSt3__117__compressed_pairIPP5TradeRNS_9allocatorIS2_EEE5firstB8ue170006Ev, symObjAddr: 0x7E98, symBinAddr: 0x100011CE8, symSize: 0x24 }
  - { offsetInCU: 0x1DDDE, offset: 0x4D9A6, size: 0x8, addend: 0x0, symName: __ZNSt3__116reverse_iteratorIPP5TradeEC1B8ue170006ES3_, symObjAddr: 0x7F34, symBinAddr: 0x100011D84, symSize: 0x34 }
  - { offsetInCU: 0x1DE14, offset: 0x4D9DC, size: 0x8, addend: 0x0, symName: __ZNKSt3__116reverse_iteratorIPP5TradeE4baseB8ue170006Ev, symObjAddr: 0x7F68, symBinAddr: 0x100011DB8, symSize: 0x18 }
  - { offsetInCU: 0x1DE38, offset: 0x4DA00, size: 0x8, addend: 0x0, symName: __ZNKSt3__16vectorIP5TradeNS_9allocatorIS2_EEE14__annotate_newB8ue170006Em, symObjAddr: 0x7FBC, symBinAddr: 0x100011E0C, symSize: 0xAC }
  - { offsetInCU: 0x1DE84, offset: 0x4DA4C, size: 0x8, addend: 0x0, symName: __ZNKSt3__111__move_loopINS_17_ClassicAlgPolicyEEclB8ue170006INS_16reverse_iteratorIPP5TradeEES8_S8_EENS_4pairIT_T1_EESA_T0_SB_, symObjAddr: 0x8358, symBinAddr: 0x1000121A8, symSize: 0xA0 }
  - { offsetInCU: 0x1DEF2, offset: 0x4DABA, size: 0x8, addend: 0x0, symName: __ZNSt3__18_IterOpsINS_17_ClassicAlgPolicyEE11__iter_moveB8ue170006IRNS_16reverse_iteratorIPP5TradeEEEENS_9enable_ifIXsr12is_referenceIDTdeclsr3stdE7declvalIRT_EEEEE5valueEDTclsr3stdE4movedeclsr3stdE7declvalISC_EEEEE4typeEOSB_, symObjAddr: 0x858C, symBinAddr: 0x1000123DC, symSize: 0x28 }
  - { offsetInCU: 0x1DF1D, offset: 0x4DAE5, size: 0x8, addend: 0x0, symName: __ZNKSt3__116reverse_iteratorIPP5TradeEdeB8ue170006Ev, symObjAddr: 0x85B4, symBinAddr: 0x100012404, symSize: 0x28 }
  - { offsetInCU: 0x1DF4F, offset: 0x4DB17, size: 0x8, addend: 0x0, symName: __ZNSt3__116reverse_iteratorIPP5TradeEppB8ue170006Ev, symObjAddr: 0x85DC, symBinAddr: 0x10001242C, symSize: 0x20 }
  - { offsetInCU: 0x1DF73, offset: 0x4DB3B, size: 0x8, addend: 0x0, symName: __ZNSt3__18_IterOpsINS_17_ClassicAlgPolicyEE25__validate_iter_referenceB8ue170006IRNS_16reverse_iteratorIPP5TradeEEEEvv, symObjAddr: 0x85FC, symBinAddr: 0x10001244C, symSize: 0x4 }
  - { offsetInCU: 0x1DF90, offset: 0x4DB58, size: 0x8, addend: 0x0, symName: __ZNSt3__118__unwrap_iter_implINS_16reverse_iteratorIPP5TradeEELb0EE8__unwrapB8ue170006ES5_, symObjAddr: 0x8600, symBinAddr: 0x100012450, symSize: 0x24 }
  - { offsetInCU: 0x1DFB7, offset: 0x4DB7F, size: 0x8, addend: 0x0, symName: __ZNSt3__14pairINS_16reverse_iteratorIPP5TradeEES5_EC1B8ue170006IS5_S5_LPv0EEEOT_OT0_, symObjAddr: 0x8624, symBinAddr: 0x100012474, symSize: 0x3C }
  - { offsetInCU: 0x1E014, offset: 0x4DBDC, size: 0x8, addend: 0x0, symName: __ZNSt3__14pairINS_16reverse_iteratorIPP5TradeEES5_EC2B8ue170006IS5_S5_LPv0EEEOT_OT0_, symObjAddr: 0x8660, symBinAddr: 0x1000124B0, symSize: 0x34 }
  - { offsetInCU: 0x1E071, offset: 0x4DC39, size: 0x8, addend: 0x0, symName: __ZNSt3__118__unwrap_iter_implINS_16reverse_iteratorIPP5TradeEELb0EE8__rewrapB8ue170006ES5_S5_, symObjAddr: 0x8694, symBinAddr: 0x1000124E4, symSize: 0x2C }
  - { offsetInCU: 0x1E09D, offset: 0x4DC65, size: 0x8, addend: 0x0, symName: __ZNSt3__116reverse_iteratorIPP5TradeEC2B8ue170006ES3_, symObjAddr: 0x86C0, symBinAddr: 0x100012510, symSize: 0x28 }
  - { offsetInCU: 0x1E0D3, offset: 0x4DC9B, size: 0x8, addend: 0x0, symName: __ZNSt3__114__split_bufferIP5TradeRNS_9allocatorIS2_EEED2Ev, symObjAddr: 0x86E8, symBinAddr: 0x100012538, symSize: 0x8C }
  - { offsetInCU: 0x1E0FE, offset: 0x4DCC6, size: 0x8, addend: 0x0, symName: __ZNSt3__114__split_bufferIP5TradeRNS_9allocatorIS2_EEE5clearB8ue170006Ev, symObjAddr: 0x8774, symBinAddr: 0x1000125C4, symSize: 0x28 }
  - { offsetInCU: 0x1E122, offset: 0x4DCEA, size: 0x8, addend: 0x0, symName: __ZNKSt3__114__split_bufferIP5TradeRNS_9allocatorIS2_EEE8capacityB8ue170006Ev, symObjAddr: 0x879C, symBinAddr: 0x1000125EC, symSize: 0x40 }
  - { offsetInCU: 0x1E146, offset: 0x4DD0E, size: 0x8, addend: 0x0, symName: __ZNSt3__114__split_bufferIP5TradeRNS_9allocatorIS2_EEE17__destruct_at_endB8ue170006EPS2_, symObjAddr: 0x87DC, symBinAddr: 0x10001262C, symSize: 0x2C }
  - { offsetInCU: 0x1E178, offset: 0x4DD40, size: 0x8, addend: 0x0, symName: __ZNSt3__114__split_bufferIP5TradeRNS_9allocatorIS2_EEE17__destruct_at_endB8ue170006EPS2_NS_17integral_constantIbLb0EEE, symObjAddr: 0x8808, symBinAddr: 0x100012658, symSize: 0x80 }
  - { offsetInCU: 0x1E1B6, offset: 0x4DD7E, size: 0x8, addend: 0x0, symName: __ZNKSt3__114__split_bufferIP5TradeRNS_9allocatorIS2_EEE9__end_capB8ue170006Ev, symObjAddr: 0x8888, symBinAddr: 0x1000126D8, symSize: 0x28 }
  - { offsetInCU: 0x1E1DA, offset: 0x4DDA2, size: 0x8, addend: 0x0, symName: __ZNKSt3__117__compressed_pairIPP5TradeRNS_9allocatorIS2_EEE5firstB8ue170006Ev, symObjAddr: 0x88B0, symBinAddr: 0x100012700, symSize: 0x24 }
  - { offsetInCU: 0x1E1FE, offset: 0x4DDC6, size: 0x8, addend: 0x0, symName: __ZNSt3__16vectorIP5TradeNS_9allocatorIS2_EEE11__make_iterB8ue170006EPS2_, symObjAddr: 0x88D4, symBinAddr: 0x100012724, symSize: 0x30 }
  - { offsetInCU: 0x1E231, offset: 0x4DDF9, size: 0x8, addend: 0x0, symName: __ZNSt3__111__wrap_iterIPP5TradeEC1B8ue170006ES3_, symObjAddr: 0x8904, symBinAddr: 0x100012754, symSize: 0x34 }
  - { offsetInCU: 0x1E267, offset: 0x4DE2F, size: 0x8, addend: 0x0, symName: __ZNSt3__111__wrap_iterIPP5TradeEC2B8ue170006ES3_, symObjAddr: 0x8938, symBinAddr: 0x100012788, symSize: 0x20 }
...
